
AlphaController.elf:     file format elf32-avr

Sections:
Idx Name          Size      VMA       LMA       File off  Algn
  0 .data         000004c2  00800100  00000d68  00000dfc  2**0
                  CONTENTS, ALLOC, LOAD, DATA
  1 .text         00000d68  00000000  00000000  00000094  2**1
                  CONTENTS, ALLOC, LOAD, READONLY, CODE
  2 .bss          000002af  008005c2  008005c2  000012be  2**0
                  ALLOC
  3 .comment      00000030  00000000  00000000  000012be  2**0
                  CONTENTS, READONLY
  4 .note.gnu.avr.deviceinfo 00000040  00000000  00000000  000012f0  2**2
                  CONTENTS, READONLY
  5 .debug_aranges 000000d8  00000000  00000000  00001330  2**0
                  CONTENTS, READONLY, DEBUGGING
  6 .debug_info   00001249  00000000  00000000  00001408  2**0
                  CONTENTS, READONLY, DEBUGGING
  7 .debug_abbrev 000008a8  00000000  00000000  00002651  2**0
                  CONTENTS, READONLY, DEBUGGING
  8 .debug_line   00000a21  00000000  00000000  00002ef9  2**0
                  CONTENTS, READONLY, DEBUGGING
  9 .debug_frame  0000020c  00000000  00000000  0000391c  2**2
                  CONTENTS, READONLY, DEBUGGING
 10 .debug_str    000005ec  00000000  00000000  00003b28  2**0
                  CONTENTS, READONLY, DEBUGGING
 11 .debug_loc    0000054f  00000000  00000000  00004114  2**0
                  CONTENTS, READONLY, DEBUGGING
 12 .debug_ranges 00000190  00000000  00000000  00004663  2**0
                  CONTENTS, READONLY, DEBUGGING

Disassembly of section .text:

00000000 <__vectors>:
   0:	0c 94 45 00 	jmp	0x8a	; 0x8a <__ctors_end>
   4:	0c 94 36 05 	jmp	0xa6c	; 0xa6c <__vector_1>
   8:	0c 94 62 00 	jmp	0xc4	; 0xc4 <__bad_interrupt>
   c:	0c 94 62 00 	jmp	0xc4	; 0xc4 <__bad_interrupt>
  10:	0c 94 62 00 	jmp	0xc4	; 0xc4 <__bad_interrupt>
  14:	0c 94 62 00 	jmp	0xc4	; 0xc4 <__bad_interrupt>
  18:	0c 94 62 00 	jmp	0xc4	; 0xc4 <__bad_interrupt>
  1c:	0c 94 62 00 	jmp	0xc4	; 0xc4 <__bad_interrupt>
  20:	0c 94 62 00 	jmp	0xc4	; 0xc4 <__bad_interrupt>
  24:	0c 94 aa 05 	jmp	0xb54	; 0xb54 <__vector_9>
  28:	0c 94 62 00 	jmp	0xc4	; 0xc4 <__bad_interrupt>
  2c:	0c 94 62 00 	jmp	0xc4	; 0xc4 <__bad_interrupt>
  30:	0c 94 62 00 	jmp	0xc4	; 0xc4 <__bad_interrupt>
  34:	0c 94 62 00 	jmp	0xc4	; 0xc4 <__bad_interrupt>
  38:	0c 94 62 00 	jmp	0xc4	; 0xc4 <__bad_interrupt>
  3c:	0c 94 62 00 	jmp	0xc4	; 0xc4 <__bad_interrupt>
  40:	0c 94 6d 05 	jmp	0xada	; 0xada <__vector_16>
  44:	0c 94 62 00 	jmp	0xc4	; 0xc4 <__bad_interrupt>
  48:	0c 94 62 00 	jmp	0xc4	; 0xc4 <__bad_interrupt>
  4c:	0c 94 62 00 	jmp	0xc4	; 0xc4 <__bad_interrupt>
  50:	0c 94 51 05 	jmp	0xaa2	; 0xaa2 <__vector_20>
  54:	0c 94 62 00 	jmp	0xc4	; 0xc4 <__bad_interrupt>
  58:	0c 94 62 00 	jmp	0xc4	; 0xc4 <__bad_interrupt>
  5c:	0c 94 62 00 	jmp	0xc4	; 0xc4 <__bad_interrupt>
  60:	0c 94 62 00 	jmp	0xc4	; 0xc4 <__bad_interrupt>
  64:	0c 94 62 00 	jmp	0xc4	; 0xc4 <__bad_interrupt>
  68:	0c 94 62 00 	jmp	0xc4	; 0xc4 <__bad_interrupt>
  6c:	0c 94 62 00 	jmp	0xc4	; 0xc4 <__bad_interrupt>
  70:	0c 94 62 00 	jmp	0xc4	; 0xc4 <__bad_interrupt>
  74:	0c 94 62 00 	jmp	0xc4	; 0xc4 <__bad_interrupt>
  78:	0c 94 62 00 	jmp	0xc4	; 0xc4 <__bad_interrupt>
  7c:	f1 03       	fmuls	r23, r17
  7e:	eb 03       	fmulsu	r22, r19
  80:	df 02       	muls	r29, r31
  82:	21 02       	muls	r18, r17
  84:	63 01       	movw	r12, r6
  86:	df 00       	.word	0x00df	; ????
  88:	9d 03       	fmulsu	r17, r21

0000008a <__ctors_end>:
  8a:	11 24       	eor	r1, r1
  8c:	1f be       	out	0x3f, r1	; 63
  8e:	cf ef       	ldi	r28, 0xFF	; 255
  90:	d0 e1       	ldi	r29, 0x10	; 16
  92:	de bf       	out	0x3e, r29	; 62
  94:	cd bf       	out	0x3d, r28	; 61

00000096 <__do_copy_data>:
  96:	15 e0       	ldi	r17, 0x05	; 5
  98:	a0 e0       	ldi	r26, 0x00	; 0
  9a:	b1 e0       	ldi	r27, 0x01	; 1
  9c:	e8 e6       	ldi	r30, 0x68	; 104
  9e:	fd e0       	ldi	r31, 0x0D	; 13
  a0:	02 c0       	rjmp	.+4      	; 0xa6 <__do_copy_data+0x10>
  a2:	05 90       	lpm	r0, Z+
  a4:	0d 92       	st	X+, r0
  a6:	a2 3c       	cpi	r26, 0xC2	; 194
  a8:	b1 07       	cpc	r27, r17
  aa:	d9 f7       	brne	.-10     	; 0xa2 <__do_copy_data+0xc>

000000ac <__do_clear_bss>:
  ac:	28 e0       	ldi	r18, 0x08	; 8
  ae:	a2 ec       	ldi	r26, 0xC2	; 194
  b0:	b5 e0       	ldi	r27, 0x05	; 5
  b2:	01 c0       	rjmp	.+2      	; 0xb6 <.do_clear_bss_start>

000000b4 <.do_clear_bss_loop>:
  b4:	1d 92       	st	X+, r1

000000b6 <.do_clear_bss_start>:
  b6:	a1 37       	cpi	r26, 0x71	; 113
  b8:	b2 07       	cpc	r27, r18
  ba:	e1 f7       	brne	.-8      	; 0xb4 <.do_clear_bss_loop>
  bc:	0e 94 64 00 	call	0xc8	; 0xc8 <main>
  c0:	0c 94 b2 06 	jmp	0xd64	; 0xd64 <_exit>

000000c4 <__bad_interrupt>:
  c4:	0c 94 00 00 	jmp	0	; 0x0 <__vectors>

000000c8 <main>:
        timerCounterA = TCNT1+6667;
    } else {
        timerCounterA = TCNT1-13333;
    }
    if(TCNT1+13333 <= 20000) {
        timerCounterB = TCNT1+13333;
  c8:	e8 9a       	sbi	0x1d, 0	; 29
  ca:	80 91 69 00 	lds	r24, 0x0069	; 0x800069 <__TEXT_REGION_LENGTH__+0x7e0069>
  ce:	82 60       	ori	r24, 0x02	; 2
  d0:	80 93 69 00 	sts	0x0069, r24	; 0x800069 <__TEXT_REGION_LENGTH__+0x7e0069>
  d4:	82 e0       	ldi	r24, 0x02	; 2
  d6:	84 bd       	out	0x24, r24	; 36
  d8:	85 b5       	in	r24, 0x25	; 37
  da:	85 60       	ori	r24, 0x05	; 5
  dc:	85 bd       	out	0x25, r24	; 37
  de:	87 e6       	ldi	r24, 0x67	; 103
  e0:	87 bd       	out	0x27, r24	; 39
  e2:	80 91 6e 00 	lds	r24, 0x006E	; 0x80006e <__TEXT_REGION_LENGTH__+0x7e006e>
  e6:	82 60       	ori	r24, 0x02	; 2
  e8:	80 93 6e 00 	sts	0x006E, r24	; 0x80006e <__TEXT_REGION_LENGTH__+0x7e006e>
  ec:	80 91 80 00 	lds	r24, 0x0080	; 0x800080 <__TEXT_REGION_LENGTH__+0x7e0080>
  f0:	80 93 80 00 	sts	0x0080, r24	; 0x800080 <__TEXT_REGION_LENGTH__+0x7e0080>
  f4:	80 91 81 00 	lds	r24, 0x0081	; 0x800081 <__TEXT_REGION_LENGTH__+0x7e0081>
  f8:	82 60       	ori	r24, 0x02	; 2
  fa:	80 93 81 00 	sts	0x0081, r24	; 0x800081 <__TEXT_REGION_LENGTH__+0x7e0081>
  fe:	80 91 6f 00 	lds	r24, 0x006F	; 0x80006f <__TEXT_REGION_LENGTH__+0x7e006f>
 102:	81 60       	ori	r24, 0x01	; 1
 104:	80 93 6f 00 	sts	0x006F, r24	; 0x80006f <__TEXT_REGION_LENGTH__+0x7e006f>
 108:	80 91 b0 00 	lds	r24, 0x00B0	; 0x8000b0 <__TEXT_REGION_LENGTH__+0x7e00b0>
 10c:	82 60       	ori	r24, 0x02	; 2
 10e:	80 93 b0 00 	sts	0x00B0, r24	; 0x8000b0 <__TEXT_REGION_LENGTH__+0x7e00b0>
 112:	80 91 b1 00 	lds	r24, 0x00B1	; 0x8000b1 <__TEXT_REGION_LENGTH__+0x7e00b1>
 116:	84 60       	ori	r24, 0x04	; 4
 118:	80 93 b1 00 	sts	0x00B1, r24	; 0x8000b1 <__TEXT_REGION_LENGTH__+0x7e00b1>
 11c:	82 e8       	ldi	r24, 0x82	; 130
 11e:	80 93 b3 00 	sts	0x00B3, r24	; 0x8000b3 <__TEXT_REGION_LENGTH__+0x7e00b3>
 122:	80 91 70 00 	lds	r24, 0x0070	; 0x800070 <__TEXT_REGION_LENGTH__+0x7e0070>
 126:	82 60       	ori	r24, 0x02	; 2
 128:	80 93 70 00 	sts	0x0070, r24	; 0x800070 <__TEXT_REGION_LENGTH__+0x7e0070>
 12c:	89 e1       	ldi	r24, 0x19	; 25
 12e:	90 e0       	ldi	r25, 0x00	; 0
 130:	90 93 c5 00 	sts	0x00C5, r25	; 0x8000c5 <__TEXT_REGION_LENGTH__+0x7e00c5>
 134:	80 93 c4 00 	sts	0x00C4, r24	; 0x8000c4 <__TEXT_REGION_LENGTH__+0x7e00c4>
 138:	88 e9       	ldi	r24, 0x98	; 152
 13a:	80 93 c1 00 	sts	0x00C1, r24	; 0x8000c1 <__TEXT_REGION_LENGTH__+0x7e00c1>
 13e:	86 e0       	ldi	r24, 0x06	; 6
 140:	80 93 c2 00 	sts	0x00C2, r24	; 0x8000c2 <__TEXT_REGION_LENGTH__+0x7e00c2>
 144:	80 91 c2 00 	lds	r24, 0x00C2	; 0x8000c2 <__TEXT_REGION_LENGTH__+0x7e00c2>
 148:	87 7f       	andi	r24, 0xF7	; 247
 14a:	80 93 c2 00 	sts	0x00C2, r24	; 0x8000c2 <__TEXT_REGION_LENGTH__+0x7e00c2>
 14e:	78 94       	sei
 150:	8f ef       	ldi	r24, 0xFF	; 255
 152:	84 b9       	out	0x04, r24	; 4
 154:	32 e7       	ldi	r19, 0x72	; 114
 156:	73 2e       	mov	r7, r19
 158:	44 e6       	ldi	r20, 0x64	; 100
 15a:	84 2e       	mov	r8, r20
 15c:	91 2c       	mov	r9, r1
 15e:	5c e3       	ldi	r21, 0x3C	; 60
 160:	c5 2e       	mov	r12, r21
 162:	58 e0       	ldi	r21, 0x08	; 8
 164:	d5 2e       	mov	r13, r21
 166:	c1 e0       	ldi	r28, 0x01	; 1
 168:	d0 e0       	ldi	r29, 0x00	; 0
 16a:	62 e7       	ldi	r22, 0x72	; 114
 16c:	e6 2e       	mov	r14, r22
 16e:	67 e0       	ldi	r22, 0x07	; 7
 170:	f6 2e       	mov	r15, r22
 172:	08 ea       	ldi	r16, 0xA8	; 168
 174:	16 e0       	ldi	r17, 0x06	; 6
 176:	80 91 d8 05 	lds	r24, 0x05D8	; 0x8005d8 <intCounter>
 17a:	90 91 d9 05 	lds	r25, 0x05D9	; 0x8005d9 <intCounter+0x1>
 17e:	88 3c       	cpi	r24, 0xC8	; 200
 180:	91 05       	cpc	r25, r1
 182:	09 f4       	brne	.+2      	; 0x186 <main+0xbe>
 184:	6f c0       	rjmp	.+222    	; 0x264 <main+0x19c>
 186:	80 91 c6 05 	lds	r24, 0x05C6	; 0x8005c6 <uartFlag>
 18a:	90 91 c7 05 	lds	r25, 0x05C7	; 0x8005c7 <uartFlag+0x1>
 18e:	01 97       	sbiw	r24, 0x01	; 1
 190:	09 f4       	brne	.+2      	; 0x194 <main+0xcc>
 192:	7d c0       	rjmp	.+250    	; 0x28e <main+0x1c6>
 194:	a0 90 c6 05 	lds	r10, 0x05C6	; 0x8005c6 <uartFlag>
 198:	b0 90 c7 05 	lds	r11, 0x05C7	; 0x8005c7 <uartFlag+0x1>
 19c:	21 e0       	ldi	r18, 0x01	; 1
 19e:	a2 16       	cp	r10, r18
 1a0:	b1 04       	cpc	r11, r1
 1a2:	09 f4       	brne	.+2      	; 0x1a6 <main+0xde>
 1a4:	24 c3       	rjmp	.+1608   	; 0x7ee <__LOCK_REGION_LENGTH__+0x3ee>
 1a6:	e0 91 02 01 	lds	r30, 0x0102	; 0x800102 <mode>
 1aa:	f0 91 03 01 	lds	r31, 0x0103	; 0x800103 <mode+0x1>
 1ae:	31 97       	sbiw	r30, 0x01	; 1
 1b0:	e7 30       	cpi	r30, 0x07	; 7
 1b2:	f1 05       	cpc	r31, r1
 1b4:	00 f7       	brcc	.-64     	; 0x176 <main+0xae>
 1b6:	e2 5c       	subi	r30, 0xC2	; 194
 1b8:	ff 4f       	sbci	r31, 0xFF	; 255
 1ba:	0c 94 5a 06 	jmp	0xcb4	; 0xcb4 <__tablejump2__>
 1be:	80 91 de 05 	lds	r24, 0x05DE	; 0x8005de <ctrlVal1>
 1c2:	90 91 df 05 	lds	r25, 0x05DF	; 0x8005df <ctrlVal1+0x1>
 1c6:	20 91 d8 05 	lds	r18, 0x05D8	; 0x8005d8 <intCounter>
 1ca:	30 91 d9 05 	lds	r19, 0x05D9	; 0x8005d9 <intCounter+0x1>
 1ce:	88 0f       	add	r24, r24
 1d0:	99 1f       	adc	r25, r25
 1d2:	28 17       	cp	r18, r24
 1d4:	39 07       	cpc	r19, r25
 1d6:	0c f4       	brge	.+2      	; 0x1da <main+0x112>
 1d8:	8c c3       	rjmp	.+1816   	; 0x8f2 <__LOCK_REGION_LENGTH__+0x4f2>
 1da:	28 98       	cbi	0x05, 0	; 5
 1dc:	80 91 dc 05 	lds	r24, 0x05DC	; 0x8005dc <ctrlVal2>
 1e0:	90 91 dd 05 	lds	r25, 0x05DD	; 0x8005dd <ctrlVal2+0x1>
 1e4:	20 91 d8 05 	lds	r18, 0x05D8	; 0x8005d8 <intCounter>
 1e8:	30 91 d9 05 	lds	r19, 0x05D9	; 0x8005d9 <intCounter+0x1>
 1ec:	88 0f       	add	r24, r24
 1ee:	99 1f       	adc	r25, r25
 1f0:	28 17       	cp	r18, r24
 1f2:	39 07       	cpc	r19, r25
 1f4:	0c f4       	brge	.+2      	; 0x1f8 <main+0x130>
 1f6:	7b c3       	rjmp	.+1782   	; 0x8ee <__LOCK_REGION_LENGTH__+0x4ee>
 1f8:	29 98       	cbi	0x05, 1	; 5
 1fa:	80 91 da 05 	lds	r24, 0x05DA	; 0x8005da <ctrlVal3>
 1fe:	90 91 db 05 	lds	r25, 0x05DB	; 0x8005db <ctrlVal3+0x1>
 202:	20 91 d8 05 	lds	r18, 0x05D8	; 0x8005d8 <intCounter>
 206:	30 91 d9 05 	lds	r19, 0x05D9	; 0x8005d9 <intCounter+0x1>
 20a:	88 0f       	add	r24, r24
 20c:	99 1f       	adc	r25, r25
 20e:	28 17       	cp	r18, r24
 210:	39 07       	cpc	r19, r25
 212:	0c f4       	brge	.+2      	; 0x216 <main+0x14e>
 214:	6a c3       	rjmp	.+1748   	; 0x8ea <__LOCK_REGION_LENGTH__+0x4ea>
 216:	2a 98       	cbi	0x05, 2	; 5
 218:	80 91 da 05 	lds	r24, 0x05DA	; 0x8005da <ctrlVal3>
 21c:	90 91 db 05 	lds	r25, 0x05DB	; 0x8005db <ctrlVal3+0x1>
 220:	20 91 d6 05 	lds	r18, 0x05D6	; 0x8005d6 <intCounterPhaseA>
 224:	30 91 d7 05 	lds	r19, 0x05D7	; 0x8005d7 <intCounterPhaseA+0x1>
 228:	88 0f       	add	r24, r24
 22a:	99 1f       	adc	r25, r25
 22c:	28 17       	cp	r18, r24
 22e:	39 07       	cpc	r19, r25
 230:	0c f4       	brge	.+2      	; 0x234 <main+0x16c>
 232:	59 c3       	rjmp	.+1714   	; 0x8e6 <__LOCK_REGION_LENGTH__+0x4e6>
 234:	2b 98       	cbi	0x05, 3	; 5
 236:	80 91 da 05 	lds	r24, 0x05DA	; 0x8005da <ctrlVal3>
 23a:	90 91 db 05 	lds	r25, 0x05DB	; 0x8005db <ctrlVal3+0x1>
 23e:	20 91 d4 05 	lds	r18, 0x05D4	; 0x8005d4 <intCounterPhaseB>
 242:	30 91 d5 05 	lds	r19, 0x05D5	; 0x8005d5 <intCounterPhaseB+0x1>
 246:	88 0f       	add	r24, r24
 248:	99 1f       	adc	r25, r25
 24a:	28 17       	cp	r18, r24
 24c:	39 07       	cpc	r19, r25
 24e:	0c f4       	brge	.+2      	; 0x252 <main+0x18a>
 250:	f6 c0       	rjmp	.+492    	; 0x43e <__LOCK_REGION_LENGTH__+0x3e>
 252:	2c 98       	cbi	0x05, 4	; 5
 254:	80 91 d8 05 	lds	r24, 0x05D8	; 0x8005d8 <intCounter>
 258:	90 91 d9 05 	lds	r25, 0x05D9	; 0x8005d9 <intCounter+0x1>
 25c:	88 3c       	cpi	r24, 0xC8	; 200
 25e:	91 05       	cpc	r25, r1
 260:	09 f0       	breq	.+2      	; 0x264 <main+0x19c>
 262:	91 cf       	rjmp	.-222    	; 0x186 <main+0xbe>
 264:	10 92 d9 05 	sts	0x05D9, r1	; 0x8005d9 <intCounter+0x1>
 268:	10 92 d8 05 	sts	0x05D8, r1	; 0x8005d8 <intCounter>
 26c:	10 92 d3 05 	sts	0x05D3, r1	; 0x8005d3 <burstCounter+0x1>
 270:	10 92 d2 05 	sts	0x05D2, r1	; 0x8005d2 <burstCounter>
 274:	80 91 c0 00 	lds	r24, 0x00C0	; 0x8000c0 <__TEXT_REGION_LENGTH__+0x7e00c0>
 278:	85 ff       	sbrs	r24, 5
 27a:	fc cf       	rjmp	.-8      	; 0x274 <main+0x1ac>
 27c:	70 92 c6 00 	sts	0x00C6, r7	; 0x8000c6 <__TEXT_REGION_LENGTH__+0x7e00c6>
 280:	80 91 c6 05 	lds	r24, 0x05C6	; 0x8005c6 <uartFlag>
 284:	90 91 c7 05 	lds	r25, 0x05C7	; 0x8005c7 <uartFlag+0x1>
 288:	01 97       	sbiw	r24, 0x01	; 1
 28a:	09 f0       	breq	.+2      	; 0x28e <main+0x1c6>
 28c:	83 cf       	rjmp	.-250    	; 0x194 <main+0xcc>
 28e:	80 91 70 08 	lds	r24, 0x0870	; 0x800870 <uartBuffer>
 292:	83 32       	cpi	r24, 0x23	; 35
 294:	09 f4       	brne	.+2      	; 0x298 <main+0x1d0>
 296:	7e cf       	rjmp	.-260    	; 0x194 <main+0xcc>
 298:	e0 91 c8 05 	lds	r30, 0x05C8	; 0x8005c8 <bufferIdx>
 29c:	f0 91 c9 05 	lds	r31, 0x05C9	; 0x8005c9 <bufferIdx+0x1>
 2a0:	80 91 70 08 	lds	r24, 0x0870	; 0x800870 <uartBuffer>
 2a4:	e2 5c       	subi	r30, 0xC2	; 194
 2a6:	f7 4f       	sbci	r31, 0xF7	; 247
 2a8:	80 83       	st	Z, r24
 2aa:	80 91 c8 05 	lds	r24, 0x05C8	; 0x8005c8 <bufferIdx>
 2ae:	90 91 c9 05 	lds	r25, 0x05C9	; 0x8005c9 <bufferIdx+0x1>
 2b2:	01 96       	adiw	r24, 0x01	; 1
 2b4:	90 93 c9 05 	sts	0x05C9, r25	; 0x8005c9 <bufferIdx+0x1>
 2b8:	80 93 c8 05 	sts	0x05C8, r24	; 0x8005c8 <bufferIdx>
 2bc:	10 92 c7 05 	sts	0x05C7, r1	; 0x8005c7 <uartFlag+0x1>
 2c0:	10 92 c6 05 	sts	0x05C6, r1	; 0x8005c6 <uartFlag>
 2c4:	70 cf       	rjmp	.-288    	; 0x1a6 <main+0xde>
 2c6:	60 91 84 00 	lds	r22, 0x0084	; 0x800084 <__TEXT_REGION_LENGTH__+0x7e0084>
 2ca:	70 91 85 00 	lds	r23, 0x0085	; 0x800085 <__TEXT_REGION_LENGTH__+0x7e0085>
 2ce:	a0 90 de 05 	lds	r10, 0x05DE	; 0x8005de <ctrlVal1>
 2d2:	b0 90 df 05 	lds	r11, 0x05DF	; 0x8005df <ctrlVal1+0x1>
 2d6:	80 e0       	ldi	r24, 0x00	; 0
 2d8:	90 e0       	ldi	r25, 0x00	; 0
 2da:	0e 94 f4 05 	call	0xbe8	; 0xbe8 <__floatunsisf>
 2de:	f5 01       	movw	r30, r10
 2e0:	ee 0f       	add	r30, r30
 2e2:	ff 1f       	adc	r31, r31
 2e4:	ee 0f       	add	r30, r30
 2e6:	ff 1f       	adc	r31, r31
 2e8:	ec 5f       	subi	r30, 0xFC	; 252
 2ea:	fe 4f       	sbci	r31, 0xFE	; 254
 2ec:	20 81       	ld	r18, Z
 2ee:	31 81       	ldd	r19, Z+1	; 0x01
 2f0:	42 81       	ldd	r20, Z+2	; 0x02
 2f2:	53 81       	ldd	r21, Z+3	; 0x03
 2f4:	0e 94 31 06 	call	0xc62	; 0xc62 <__gesf2>
 2f8:	18 16       	cp	r1, r24
 2fa:	0c f0       	brlt	.+2      	; 0x2fe <main+0x236>
 2fc:	f2 c2       	rjmp	.+1508   	; 0x8e2 <__LOCK_REGION_LENGTH__+0x4e2>
 2fe:	28 9a       	sbi	0x05, 0	; 5
 300:	60 91 84 00 	lds	r22, 0x0084	; 0x800084 <__TEXT_REGION_LENGTH__+0x7e0084>
 304:	70 91 85 00 	lds	r23, 0x0085	; 0x800085 <__TEXT_REGION_LENGTH__+0x7e0085>
 308:	a0 90 dc 05 	lds	r10, 0x05DC	; 0x8005dc <ctrlVal2>
 30c:	b0 90 dd 05 	lds	r11, 0x05DD	; 0x8005dd <ctrlVal2+0x1>
 310:	80 e0       	ldi	r24, 0x00	; 0
 312:	90 e0       	ldi	r25, 0x00	; 0
 314:	0e 94 f4 05 	call	0xbe8	; 0xbe8 <__floatunsisf>
 318:	f5 01       	movw	r30, r10
 31a:	ee 0f       	add	r30, r30
 31c:	ff 1f       	adc	r31, r31
 31e:	ee 0f       	add	r30, r30
 320:	ff 1f       	adc	r31, r31
 322:	ec 5f       	subi	r30, 0xFC	; 252
 324:	fe 4f       	sbci	r31, 0xFE	; 254
 326:	20 81       	ld	r18, Z
 328:	31 81       	ldd	r19, Z+1	; 0x01
 32a:	42 81       	ldd	r20, Z+2	; 0x02
 32c:	53 81       	ldd	r21, Z+3	; 0x03
 32e:	0e 94 31 06 	call	0xc62	; 0xc62 <__gesf2>
 332:	18 16       	cp	r1, r24
 334:	0c f0       	brlt	.+2      	; 0x338 <main+0x270>
 336:	d3 c2       	rjmp	.+1446   	; 0x8de <__LOCK_REGION_LENGTH__+0x4de>
 338:	29 9a       	sbi	0x05, 1	; 5
 33a:	60 91 84 00 	lds	r22, 0x0084	; 0x800084 <__TEXT_REGION_LENGTH__+0x7e0084>
 33e:	70 91 85 00 	lds	r23, 0x0085	; 0x800085 <__TEXT_REGION_LENGTH__+0x7e0085>
 342:	a0 90 da 05 	lds	r10, 0x05DA	; 0x8005da <ctrlVal3>
 346:	b0 90 db 05 	lds	r11, 0x05DB	; 0x8005db <ctrlVal3+0x1>
 34a:	80 e0       	ldi	r24, 0x00	; 0
 34c:	90 e0       	ldi	r25, 0x00	; 0
 34e:	0e 94 f4 05 	call	0xbe8	; 0xbe8 <__floatunsisf>
 352:	f5 01       	movw	r30, r10
 354:	ee 0f       	add	r30, r30
 356:	ff 1f       	adc	r31, r31
 358:	ee 0f       	add	r30, r30
 35a:	ff 1f       	adc	r31, r31
 35c:	ec 5f       	subi	r30, 0xFC	; 252
 35e:	fe 4f       	sbci	r31, 0xFE	; 254
 360:	20 81       	ld	r18, Z
 362:	31 81       	ldd	r19, Z+1	; 0x01
 364:	42 81       	ldd	r20, Z+2	; 0x02
 366:	53 81       	ldd	r21, Z+3	; 0x03
 368:	0e 94 31 06 	call	0xc62	; 0xc62 <__gesf2>
 36c:	18 16       	cp	r1, r24
 36e:	0c f0       	brlt	.+2      	; 0x372 <main+0x2aa>
 370:	b4 c2       	rjmp	.+1384   	; 0x8da <__LOCK_REGION_LENGTH__+0x4da>
 372:	2a 9a       	sbi	0x05, 2	; 5
 374:	80 91 84 00 	lds	r24, 0x0084	; 0x800084 <__TEXT_REGION_LENGTH__+0x7e0084>
 378:	90 91 85 00 	lds	r25, 0x0085	; 0x800085 <__TEXT_REGION_LENGTH__+0x7e0085>
 37c:	85 5f       	subi	r24, 0xF5	; 245
 37e:	95 4e       	sbci	r25, 0xE5	; 229
 380:	81 32       	cpi	r24, 0x21	; 33
 382:	9e 44       	sbci	r25, 0x4E	; 78
 384:	08 f0       	brcs	.+2      	; 0x388 <main+0x2c0>
 386:	9e c2       	rjmp	.+1340   	; 0x8c4 <__LOCK_REGION_LENGTH__+0x4c4>
 388:	80 91 84 00 	lds	r24, 0x0084	; 0x800084 <__TEXT_REGION_LENGTH__+0x7e0084>
 38c:	90 91 85 00 	lds	r25, 0x0085	; 0x800085 <__TEXT_REGION_LENGTH__+0x7e0085>
 390:	85 5f       	subi	r24, 0xF5	; 245
 392:	95 4e       	sbci	r25, 0xE5	; 229
 394:	90 93 cd 05 	sts	0x05CD, r25	; 0x8005cd <timerCounterA+0x1>
 398:	80 93 cc 05 	sts	0x05CC, r24	; 0x8005cc <timerCounterA>
 39c:	80 91 84 00 	lds	r24, 0x0084	; 0x800084 <__TEXT_REGION_LENGTH__+0x7e0084>
 3a0:	90 91 85 00 	lds	r25, 0x0085	; 0x800085 <__TEXT_REGION_LENGTH__+0x7e0085>
 3a4:	8b 5e       	subi	r24, 0xEB	; 235
 3a6:	9b 4c       	sbci	r25, 0xCB	; 203
 3a8:	81 32       	cpi	r24, 0x21	; 33
 3aa:	9e 44       	sbci	r25, 0x4E	; 78
 3ac:	08 f4       	brcc	.+2      	; 0x3b0 <main+0x2e8>
 3ae:	b2 c2       	rjmp	.+1380   	; 0x914 <__LOCK_REGION_LENGTH__+0x514>
 3b0:	80 91 84 00 	lds	r24, 0x0084	; 0x800084 <__TEXT_REGION_LENGTH__+0x7e0084>
 3b4:	90 91 85 00 	lds	r25, 0x0085	; 0x800085 <__TEXT_REGION_LENGTH__+0x7e0085>
 3b8:	8b 50       	subi	r24, 0x0B	; 11
 3ba:	9a 41       	sbci	r25, 0x1A	; 26
 3bc:	90 93 cb 05 	sts	0x05CB, r25	; 0x8005cb <timerCounterB+0x1>
 3c0:	80 93 ca 05 	sts	0x05CA, r24	; 0x8005ca <timerCounterB>
 3c4:	60 91 cc 05 	lds	r22, 0x05CC	; 0x8005cc <timerCounterA>
 3c8:	70 91 cd 05 	lds	r23, 0x05CD	; 0x8005cd <timerCounterA+0x1>
 3cc:	a0 90 da 05 	lds	r10, 0x05DA	; 0x8005da <ctrlVal3>
 3d0:	b0 90 db 05 	lds	r11, 0x05DB	; 0x8005db <ctrlVal3+0x1>
 3d4:	07 2e       	mov	r0, r23
 3d6:	00 0c       	add	r0, r0
 3d8:	88 0b       	sbc	r24, r24
 3da:	99 0b       	sbc	r25, r25
 3dc:	0e 94 f6 05 	call	0xbec	; 0xbec <__floatsisf>
 3e0:	f5 01       	movw	r30, r10
 3e2:	ee 0f       	add	r30, r30
 3e4:	ff 1f       	adc	r31, r31
 3e6:	ee 0f       	add	r30, r30
 3e8:	ff 1f       	adc	r31, r31
 3ea:	ec 5f       	subi	r30, 0xFC	; 252
 3ec:	fe 4f       	sbci	r31, 0xFE	; 254
 3ee:	20 81       	ld	r18, Z
 3f0:	31 81       	ldd	r19, Z+1	; 0x01
 3f2:	42 81       	ldd	r20, Z+2	; 0x02
 3f4:	53 81       	ldd	r21, Z+3	; 0x03
 3f6:	0e 94 31 06 	call	0xc62	; 0xc62 <__gesf2>
 3fa:	18 16       	cp	r1, r24
 3fc:	0c f0       	brlt	.+2      	; 0x400 <__LOCK_REGION_LENGTH__>
 3fe:	4d c2       	rjmp	.+1178   	; 0x89a <__LOCK_REGION_LENGTH__+0x49a>
 400:	2b 9a       	sbi	0x05, 3	; 5
 402:	60 91 ca 05 	lds	r22, 0x05CA	; 0x8005ca <timerCounterB>
 406:	70 91 cb 05 	lds	r23, 0x05CB	; 0x8005cb <timerCounterB+0x1>
 40a:	a0 90 da 05 	lds	r10, 0x05DA	; 0x8005da <ctrlVal3>
 40e:	b0 90 db 05 	lds	r11, 0x05DB	; 0x8005db <ctrlVal3+0x1>
 412:	07 2e       	mov	r0, r23
 414:	00 0c       	add	r0, r0
 416:	88 0b       	sbc	r24, r24
 418:	99 0b       	sbc	r25, r25
 41a:	0e 94 f6 05 	call	0xbec	; 0xbec <__floatsisf>
 41e:	f5 01       	movw	r30, r10
 420:	ee 0f       	add	r30, r30
 422:	ff 1f       	adc	r31, r31
 424:	ee 0f       	add	r30, r30
 426:	ff 1f       	adc	r31, r31
 428:	ec 5f       	subi	r30, 0xFC	; 252
 42a:	fe 4f       	sbci	r31, 0xFE	; 254
 42c:	20 81       	ld	r18, Z
 42e:	31 81       	ldd	r19, Z+1	; 0x01
 430:	42 81       	ldd	r20, Z+2	; 0x02
 432:	53 81       	ldd	r21, Z+3	; 0x03
 434:	0e 94 31 06 	call	0xc62	; 0xc62 <__gesf2>
 438:	18 16       	cp	r1, r24
 43a:	0c f0       	brlt	.+2      	; 0x43e <__LOCK_REGION_LENGTH__+0x3e>
 43c:	0a cf       	rjmp	.-492    	; 0x252 <main+0x18a>
 43e:	2c 9a       	sbi	0x05, 4	; 5
 440:	9a ce       	rjmp	.-716    	; 0x176 <main+0xae>
 442:	60 91 84 00 	lds	r22, 0x0084	; 0x800084 <__TEXT_REGION_LENGTH__+0x7e0084>
 446:	70 91 85 00 	lds	r23, 0x0085	; 0x800085 <__TEXT_REGION_LENGTH__+0x7e0085>
 44a:	a0 90 de 05 	lds	r10, 0x05DE	; 0x8005de <ctrlVal1>
 44e:	b0 90 df 05 	lds	r11, 0x05DF	; 0x8005df <ctrlVal1+0x1>
 452:	80 e0       	ldi	r24, 0x00	; 0
 454:	90 e0       	ldi	r25, 0x00	; 0
 456:	0e 94 f4 05 	call	0xbe8	; 0xbe8 <__floatunsisf>
 45a:	f5 01       	movw	r30, r10
 45c:	ee 0f       	add	r30, r30
 45e:	ff 1f       	adc	r31, r31
 460:	ee 0f       	add	r30, r30
 462:	ff 1f       	adc	r31, r31
 464:	e8 56       	subi	r30, 0x68	; 104
 466:	fd 4f       	sbci	r31, 0xFD	; 253
 468:	20 81       	ld	r18, Z
 46a:	31 81       	ldd	r19, Z+1	; 0x01
 46c:	42 81       	ldd	r20, Z+2	; 0x02
 46e:	53 81       	ldd	r21, Z+3	; 0x03
 470:	0e 94 31 06 	call	0xc62	; 0xc62 <__gesf2>
 474:	18 16       	cp	r1, r24
 476:	0c f0       	brlt	.+2      	; 0x47a <__LOCK_REGION_LENGTH__+0x7a>
 478:	0e c2       	rjmp	.+1052   	; 0x896 <__LOCK_REGION_LENGTH__+0x496>
 47a:	28 9a       	sbi	0x05, 0	; 5
 47c:	60 91 84 00 	lds	r22, 0x0084	; 0x800084 <__TEXT_REGION_LENGTH__+0x7e0084>
 480:	70 91 85 00 	lds	r23, 0x0085	; 0x800085 <__TEXT_REGION_LENGTH__+0x7e0085>
 484:	a0 90 dc 05 	lds	r10, 0x05DC	; 0x8005dc <ctrlVal2>
 488:	b0 90 dd 05 	lds	r11, 0x05DD	; 0x8005dd <ctrlVal2+0x1>
 48c:	80 e0       	ldi	r24, 0x00	; 0
 48e:	90 e0       	ldi	r25, 0x00	; 0
 490:	0e 94 f4 05 	call	0xbe8	; 0xbe8 <__floatunsisf>
 494:	f5 01       	movw	r30, r10
 496:	ee 0f       	add	r30, r30
 498:	ff 1f       	adc	r31, r31
 49a:	ee 0f       	add	r30, r30
 49c:	ff 1f       	adc	r31, r31
 49e:	e8 56       	subi	r30, 0x68	; 104
 4a0:	fd 4f       	sbci	r31, 0xFD	; 253
 4a2:	20 81       	ld	r18, Z
 4a4:	31 81       	ldd	r19, Z+1	; 0x01
 4a6:	42 81       	ldd	r20, Z+2	; 0x02
 4a8:	53 81       	ldd	r21, Z+3	; 0x03
 4aa:	0e 94 31 06 	call	0xc62	; 0xc62 <__gesf2>
 4ae:	18 16       	cp	r1, r24
 4b0:	0c f0       	brlt	.+2      	; 0x4b4 <__LOCK_REGION_LENGTH__+0xb4>
 4b2:	ef c1       	rjmp	.+990    	; 0x892 <__LOCK_REGION_LENGTH__+0x492>
 4b4:	29 9a       	sbi	0x05, 1	; 5
 4b6:	60 91 84 00 	lds	r22, 0x0084	; 0x800084 <__TEXT_REGION_LENGTH__+0x7e0084>
 4ba:	70 91 85 00 	lds	r23, 0x0085	; 0x800085 <__TEXT_REGION_LENGTH__+0x7e0085>
 4be:	a0 90 da 05 	lds	r10, 0x05DA	; 0x8005da <ctrlVal3>
 4c2:	b0 90 db 05 	lds	r11, 0x05DB	; 0x8005db <ctrlVal3+0x1>
 4c6:	80 e0       	ldi	r24, 0x00	; 0
 4c8:	90 e0       	ldi	r25, 0x00	; 0
 4ca:	0e 94 f4 05 	call	0xbe8	; 0xbe8 <__floatunsisf>
 4ce:	f5 01       	movw	r30, r10
 4d0:	ee 0f       	add	r30, r30
 4d2:	ff 1f       	adc	r31, r31
 4d4:	ee 0f       	add	r30, r30
 4d6:	ff 1f       	adc	r31, r31
 4d8:	e8 56       	subi	r30, 0x68	; 104
 4da:	fd 4f       	sbci	r31, 0xFD	; 253
 4dc:	20 81       	ld	r18, Z
 4de:	31 81       	ldd	r19, Z+1	; 0x01
 4e0:	42 81       	ldd	r20, Z+2	; 0x02
 4e2:	53 81       	ldd	r21, Z+3	; 0x03
 4e4:	0e 94 31 06 	call	0xc62	; 0xc62 <__gesf2>
 4e8:	18 16       	cp	r1, r24
 4ea:	0c f0       	brlt	.+2      	; 0x4ee <__LOCK_REGION_LENGTH__+0xee>
 4ec:	11 c2       	rjmp	.+1058   	; 0x910 <__LOCK_REGION_LENGTH__+0x510>
 4ee:	2a 9a       	sbi	0x05, 2	; 5
 4f0:	80 91 84 00 	lds	r24, 0x0084	; 0x800084 <__TEXT_REGION_LENGTH__+0x7e0084>
 4f4:	90 91 85 00 	lds	r25, 0x0085	; 0x800085 <__TEXT_REGION_LENGTH__+0x7e0085>
 4f8:	85 5f       	subi	r24, 0xF5	; 245
 4fa:	95 4e       	sbci	r25, 0xE5	; 229
 4fc:	81 32       	cpi	r24, 0x21	; 33
 4fe:	9e 44       	sbci	r25, 0x4E	; 78
 500:	08 f0       	brcs	.+2      	; 0x504 <__LOCK_REGION_LENGTH__+0x104>
 502:	fb c1       	rjmp	.+1014   	; 0x8fa <__LOCK_REGION_LENGTH__+0x4fa>
 504:	80 91 84 00 	lds	r24, 0x0084	; 0x800084 <__TEXT_REGION_LENGTH__+0x7e0084>
 508:	90 91 85 00 	lds	r25, 0x0085	; 0x800085 <__TEXT_REGION_LENGTH__+0x7e0085>
 50c:	85 5f       	subi	r24, 0xF5	; 245
 50e:	95 4e       	sbci	r25, 0xE5	; 229
 510:	90 93 cd 05 	sts	0x05CD, r25	; 0x8005cd <timerCounterA+0x1>
 514:	80 93 cc 05 	sts	0x05CC, r24	; 0x8005cc <timerCounterA>
 518:	80 91 84 00 	lds	r24, 0x0084	; 0x800084 <__TEXT_REGION_LENGTH__+0x7e0084>
 51c:	90 91 85 00 	lds	r25, 0x0085	; 0x800085 <__TEXT_REGION_LENGTH__+0x7e0085>
 520:	8b 5e       	subi	r24, 0xEB	; 235
 522:	9b 4c       	sbci	r25, 0xCB	; 203
 524:	81 32       	cpi	r24, 0x21	; 33
 526:	9e 44       	sbci	r25, 0x4E	; 78
 528:	08 f4       	brcc	.+2      	; 0x52c <__LOCK_REGION_LENGTH__+0x12c>
 52a:	0a c2       	rjmp	.+1044   	; 0x940 <__LOCK_REGION_LENGTH__+0x540>
 52c:	80 91 84 00 	lds	r24, 0x0084	; 0x800084 <__TEXT_REGION_LENGTH__+0x7e0084>
 530:	90 91 85 00 	lds	r25, 0x0085	; 0x800085 <__TEXT_REGION_LENGTH__+0x7e0085>
 534:	8b 50       	subi	r24, 0x0B	; 11
 536:	9a 41       	sbci	r25, 0x1A	; 26
 538:	90 93 cb 05 	sts	0x05CB, r25	; 0x8005cb <timerCounterB+0x1>
 53c:	80 93 ca 05 	sts	0x05CA, r24	; 0x8005ca <timerCounterB>
 540:	60 91 cc 05 	lds	r22, 0x05CC	; 0x8005cc <timerCounterA>
 544:	70 91 cd 05 	lds	r23, 0x05CD	; 0x8005cd <timerCounterA+0x1>
 548:	a0 90 da 05 	lds	r10, 0x05DA	; 0x8005da <ctrlVal3>
 54c:	b0 90 db 05 	lds	r11, 0x05DB	; 0x8005db <ctrlVal3+0x1>
 550:	07 2e       	mov	r0, r23
 552:	00 0c       	add	r0, r0
 554:	88 0b       	sbc	r24, r24
 556:	99 0b       	sbc	r25, r25
 558:	0e 94 f6 05 	call	0xbec	; 0xbec <__floatsisf>
 55c:	f5 01       	movw	r30, r10
 55e:	ee 0f       	add	r30, r30
 560:	ff 1f       	adc	r31, r31
 562:	ee 0f       	add	r30, r30
 564:	ff 1f       	adc	r31, r31
 566:	e8 56       	subi	r30, 0x68	; 104
 568:	fd 4f       	sbci	r31, 0xFD	; 253
 56a:	20 81       	ld	r18, Z
 56c:	31 81       	ldd	r19, Z+1	; 0x01
 56e:	42 81       	ldd	r20, Z+2	; 0x02
 570:	53 81       	ldd	r21, Z+3	; 0x03
 572:	0e 94 31 06 	call	0xc62	; 0xc62 <__gesf2>
 576:	18 16       	cp	r1, r24
 578:	0c f0       	brlt	.+2      	; 0x57c <__LOCK_REGION_LENGTH__+0x17c>
 57a:	bd c1       	rjmp	.+890    	; 0x8f6 <__LOCK_REGION_LENGTH__+0x4f6>
 57c:	2b 9a       	sbi	0x05, 3	; 5
 57e:	60 91 ca 05 	lds	r22, 0x05CA	; 0x8005ca <timerCounterB>
 582:	70 91 cb 05 	lds	r23, 0x05CB	; 0x8005cb <timerCounterB+0x1>
 586:	a0 90 da 05 	lds	r10, 0x05DA	; 0x8005da <ctrlVal3>
 58a:	b0 90 db 05 	lds	r11, 0x05DB	; 0x8005db <ctrlVal3+0x1>
 58e:	07 2e       	mov	r0, r23
 590:	00 0c       	add	r0, r0
 592:	88 0b       	sbc	r24, r24
 594:	99 0b       	sbc	r25, r25
 596:	0e 94 f6 05 	call	0xbec	; 0xbec <__floatsisf>
 59a:	f5 01       	movw	r30, r10
 59c:	ee 0f       	add	r30, r30
 59e:	ff 1f       	adc	r31, r31
 5a0:	ee 0f       	add	r30, r30
 5a2:	ff 1f       	adc	r31, r31
 5a4:	e8 56       	subi	r30, 0x68	; 104
 5a6:	fd 4f       	sbci	r31, 0xFD	; 253
 5a8:	20 81       	ld	r18, Z
 5aa:	31 81       	ldd	r19, Z+1	; 0x01
 5ac:	42 81       	ldd	r20, Z+2	; 0x02
 5ae:	53 81       	ldd	r21, Z+3	; 0x03
 5b0:	0e 94 31 06 	call	0xc62	; 0xc62 <__gesf2>
 5b4:	18 16       	cp	r1, r24
 5b6:	0c f0       	brlt	.+2      	; 0x5ba <__LOCK_REGION_LENGTH__+0x1ba>
 5b8:	4c ce       	rjmp	.-872    	; 0x252 <main+0x18a>
 5ba:	2c 9a       	sbi	0x05, 4	; 5
 5bc:	dc cd       	rjmp	.-1096   	; 0x176 <main+0xae>
 5be:	60 91 84 00 	lds	r22, 0x0084	; 0x800084 <__TEXT_REGION_LENGTH__+0x7e0084>
 5c2:	70 91 85 00 	lds	r23, 0x0085	; 0x800085 <__TEXT_REGION_LENGTH__+0x7e0085>
 5c6:	a0 90 de 05 	lds	r10, 0x05DE	; 0x8005de <ctrlVal1>
 5ca:	b0 90 df 05 	lds	r11, 0x05DF	; 0x8005df <ctrlVal1+0x1>
 5ce:	80 e0       	ldi	r24, 0x00	; 0
 5d0:	90 e0       	ldi	r25, 0x00	; 0
 5d2:	0e 94 f4 05 	call	0xbe8	; 0xbe8 <__floatunsisf>
 5d6:	f5 01       	movw	r30, r10
 5d8:	ee 0f       	add	r30, r30
 5da:	ff 1f       	adc	r31, r31
 5dc:	ee 0f       	add	r30, r30
 5de:	ff 1f       	adc	r31, r31
 5e0:	e4 5d       	subi	r30, 0xD4	; 212
 5e2:	fb 4f       	sbci	r31, 0xFB	; 251
 5e4:	20 81       	ld	r18, Z
 5e6:	31 81       	ldd	r19, Z+1	; 0x01
 5e8:	42 81       	ldd	r20, Z+2	; 0x02
 5ea:	53 81       	ldd	r21, Z+3	; 0x03
 5ec:	0e 94 31 06 	call	0xc62	; 0xc62 <__gesf2>
 5f0:	18 16       	cp	r1, r24
 5f2:	0c f0       	brlt	.+2      	; 0x5f6 <__LOCK_REGION_LENGTH__+0x1f6>
 5f4:	65 c1       	rjmp	.+714    	; 0x8c0 <__LOCK_REGION_LENGTH__+0x4c0>
 5f6:	28 9a       	sbi	0x05, 0	; 5
 5f8:	60 91 84 00 	lds	r22, 0x0084	; 0x800084 <__TEXT_REGION_LENGTH__+0x7e0084>
 5fc:	70 91 85 00 	lds	r23, 0x0085	; 0x800085 <__TEXT_REGION_LENGTH__+0x7e0085>
 600:	a0 90 dc 05 	lds	r10, 0x05DC	; 0x8005dc <ctrlVal2>
 604:	b0 90 dd 05 	lds	r11, 0x05DD	; 0x8005dd <ctrlVal2+0x1>
 608:	80 e0       	ldi	r24, 0x00	; 0
 60a:	90 e0       	ldi	r25, 0x00	; 0
 60c:	0e 94 f4 05 	call	0xbe8	; 0xbe8 <__floatunsisf>
 610:	f5 01       	movw	r30, r10
 612:	ee 0f       	add	r30, r30
 614:	ff 1f       	adc	r31, r31
 616:	ee 0f       	add	r30, r30
 618:	ff 1f       	adc	r31, r31
 61a:	e4 5d       	subi	r30, 0xD4	; 212
 61c:	fb 4f       	sbci	r31, 0xFB	; 251
 61e:	20 81       	ld	r18, Z
 620:	31 81       	ldd	r19, Z+1	; 0x01
 622:	42 81       	ldd	r20, Z+2	; 0x02
 624:	53 81       	ldd	r21, Z+3	; 0x03
 626:	0e 94 31 06 	call	0xc62	; 0xc62 <__gesf2>
 62a:	18 16       	cp	r1, r24
 62c:	0c f0       	brlt	.+2      	; 0x630 <__LOCK_REGION_LENGTH__+0x230>
 62e:	46 c1       	rjmp	.+652    	; 0x8bc <__LOCK_REGION_LENGTH__+0x4bc>
 630:	29 9a       	sbi	0x05, 1	; 5
 632:	60 91 84 00 	lds	r22, 0x0084	; 0x800084 <__TEXT_REGION_LENGTH__+0x7e0084>
 636:	70 91 85 00 	lds	r23, 0x0085	; 0x800085 <__TEXT_REGION_LENGTH__+0x7e0085>
 63a:	a0 90 da 05 	lds	r10, 0x05DA	; 0x8005da <ctrlVal3>
 63e:	b0 90 db 05 	lds	r11, 0x05DB	; 0x8005db <ctrlVal3+0x1>
 642:	80 e0       	ldi	r24, 0x00	; 0
 644:	90 e0       	ldi	r25, 0x00	; 0
 646:	0e 94 f4 05 	call	0xbe8	; 0xbe8 <__floatunsisf>
 64a:	f5 01       	movw	r30, r10
 64c:	ee 0f       	add	r30, r30
 64e:	ff 1f       	adc	r31, r31
 650:	ee 0f       	add	r30, r30
 652:	ff 1f       	adc	r31, r31
 654:	e4 5d       	subi	r30, 0xD4	; 212
 656:	fb 4f       	sbci	r31, 0xFB	; 251
 658:	20 81       	ld	r18, Z
 65a:	31 81       	ldd	r19, Z+1	; 0x01
 65c:	42 81       	ldd	r20, Z+2	; 0x02
 65e:	53 81       	ldd	r21, Z+3	; 0x03
 660:	0e 94 31 06 	call	0xc62	; 0xc62 <__gesf2>
 664:	18 16       	cp	r1, r24
 666:	0c f0       	brlt	.+2      	; 0x66a <__LOCK_REGION_LENGTH__+0x26a>
 668:	27 c1       	rjmp	.+590    	; 0x8b8 <__LOCK_REGION_LENGTH__+0x4b8>
 66a:	2a 9a       	sbi	0x05, 2	; 5
 66c:	80 91 84 00 	lds	r24, 0x0084	; 0x800084 <__TEXT_REGION_LENGTH__+0x7e0084>
 670:	90 91 85 00 	lds	r25, 0x0085	; 0x800085 <__TEXT_REGION_LENGTH__+0x7e0085>
 674:	85 5f       	subi	r24, 0xF5	; 245
 676:	95 4e       	sbci	r25, 0xE5	; 229
 678:	81 32       	cpi	r24, 0x21	; 33
 67a:	9e 44       	sbci	r25, 0x4E	; 78
 67c:	08 f0       	brcs	.+2      	; 0x680 <__LOCK_REGION_LENGTH__+0x280>
 67e:	11 c1       	rjmp	.+546    	; 0x8a2 <__LOCK_REGION_LENGTH__+0x4a2>
 680:	80 91 84 00 	lds	r24, 0x0084	; 0x800084 <__TEXT_REGION_LENGTH__+0x7e0084>
 684:	90 91 85 00 	lds	r25, 0x0085	; 0x800085 <__TEXT_REGION_LENGTH__+0x7e0085>
 688:	85 5f       	subi	r24, 0xF5	; 245
 68a:	95 4e       	sbci	r25, 0xE5	; 229
 68c:	90 93 cd 05 	sts	0x05CD, r25	; 0x8005cd <timerCounterA+0x1>
 690:	80 93 cc 05 	sts	0x05CC, r24	; 0x8005cc <timerCounterA>
 694:	80 91 84 00 	lds	r24, 0x0084	; 0x800084 <__TEXT_REGION_LENGTH__+0x7e0084>
 698:	90 91 85 00 	lds	r25, 0x0085	; 0x800085 <__TEXT_REGION_LENGTH__+0x7e0085>
 69c:	8b 5e       	subi	r24, 0xEB	; 235
 69e:	9b 4c       	sbci	r25, 0xCB	; 203
 6a0:	81 32       	cpi	r24, 0x21	; 33
 6a2:	9e 44       	sbci	r25, 0x4E	; 78
 6a4:	08 f4       	brcc	.+2      	; 0x6a8 <__LOCK_REGION_LENGTH__+0x2a8>
 6a6:	41 c1       	rjmp	.+642    	; 0x92a <__LOCK_REGION_LENGTH__+0x52a>
 6a8:	80 91 84 00 	lds	r24, 0x0084	; 0x800084 <__TEXT_REGION_LENGTH__+0x7e0084>
 6ac:	90 91 85 00 	lds	r25, 0x0085	; 0x800085 <__TEXT_REGION_LENGTH__+0x7e0085>
 6b0:	8b 50       	subi	r24, 0x0B	; 11
 6b2:	9a 41       	sbci	r25, 0x1A	; 26
 6b4:	90 93 cb 05 	sts	0x05CB, r25	; 0x8005cb <timerCounterB+0x1>
 6b8:	80 93 ca 05 	sts	0x05CA, r24	; 0x8005ca <timerCounterB>
 6bc:	60 91 cc 05 	lds	r22, 0x05CC	; 0x8005cc <timerCounterA>
 6c0:	70 91 cd 05 	lds	r23, 0x05CD	; 0x8005cd <timerCounterA+0x1>
 6c4:	a0 90 da 05 	lds	r10, 0x05DA	; 0x8005da <ctrlVal3>
 6c8:	b0 90 db 05 	lds	r11, 0x05DB	; 0x8005db <ctrlVal3+0x1>
 6cc:	07 2e       	mov	r0, r23
 6ce:	00 0c       	add	r0, r0
 6d0:	88 0b       	sbc	r24, r24
 6d2:	99 0b       	sbc	r25, r25
 6d4:	0e 94 f6 05 	call	0xbec	; 0xbec <__floatsisf>
 6d8:	f5 01       	movw	r30, r10
 6da:	ee 0f       	add	r30, r30
 6dc:	ff 1f       	adc	r31, r31
 6de:	ee 0f       	add	r30, r30
 6e0:	ff 1f       	adc	r31, r31
 6e2:	e4 5d       	subi	r30, 0xD4	; 212
 6e4:	fb 4f       	sbci	r31, 0xFB	; 251
 6e6:	20 81       	ld	r18, Z
 6e8:	31 81       	ldd	r19, Z+1	; 0x01
 6ea:	42 81       	ldd	r20, Z+2	; 0x02
 6ec:	53 81       	ldd	r21, Z+3	; 0x03
 6ee:	0e 94 31 06 	call	0xc62	; 0xc62 <__gesf2>
 6f2:	18 16       	cp	r1, r24
 6f4:	0c f0       	brlt	.+2      	; 0x6f8 <__LOCK_REGION_LENGTH__+0x2f8>
 6f6:	d3 c0       	rjmp	.+422    	; 0x89e <__LOCK_REGION_LENGTH__+0x49e>
 6f8:	2b 9a       	sbi	0x05, 3	; 5
 6fa:	60 91 ca 05 	lds	r22, 0x05CA	; 0x8005ca <timerCounterB>
 6fe:	70 91 cb 05 	lds	r23, 0x05CB	; 0x8005cb <timerCounterB+0x1>
 702:	a0 90 da 05 	lds	r10, 0x05DA	; 0x8005da <ctrlVal3>
 706:	b0 90 db 05 	lds	r11, 0x05DB	; 0x8005db <ctrlVal3+0x1>
 70a:	07 2e       	mov	r0, r23
 70c:	00 0c       	add	r0, r0
 70e:	88 0b       	sbc	r24, r24
 710:	99 0b       	sbc	r25, r25
 712:	0e 94 f6 05 	call	0xbec	; 0xbec <__floatsisf>
 716:	f5 01       	movw	r30, r10
 718:	ee 0f       	add	r30, r30
 71a:	ff 1f       	adc	r31, r31
 71c:	ee 0f       	add	r30, r30
 71e:	ff 1f       	adc	r31, r31
 720:	e4 5d       	subi	r30, 0xD4	; 212
 722:	fb 4f       	sbci	r31, 0xFB	; 251
 724:	20 81       	ld	r18, Z
 726:	31 81       	ldd	r19, Z+1	; 0x01
 728:	42 81       	ldd	r20, Z+2	; 0x02
 72a:	53 81       	ldd	r21, Z+3	; 0x03
 72c:	0e 94 31 06 	call	0xc62	; 0xc62 <__gesf2>
 730:	18 16       	cp	r1, r24
 732:	0c f0       	brlt	.+2      	; 0x736 <__LOCK_REGION_LENGTH__+0x336>
 734:	8e cd       	rjmp	.-1252   	; 0x252 <main+0x18a>
 736:	2c 9a       	sbi	0x05, 4	; 5
 738:	1e cd       	rjmp	.-1476   	; 0x176 <main+0xae>
 73a:	80 91 00 01 	lds	r24, 0x0100	; 0x800100 <__data_start>
 73e:	90 91 01 01 	lds	r25, 0x0101	; 0x800101 <__data_start+0x1>
 742:	01 97       	sbiw	r24, 0x01	; 1
 744:	09 f4       	brne	.+2      	; 0x748 <__LOCK_REGION_LENGTH__+0x348>
 746:	0f c1       	rjmp	.+542    	; 0x966 <__LOCK_REGION_LENGTH__+0x566>
 748:	e0 91 d2 05 	lds	r30, 0x05D2	; 0x8005d2 <burstCounter>
 74c:	f0 91 d3 05 	lds	r31, 0x05D3	; 0x8005d3 <burstCounter+0x1>
 750:	ee 0f       	add	r30, r30
 752:	ff 1f       	adc	r31, r31
 754:	ec 58       	subi	r30, 0x8C	; 140
 756:	f8 4f       	sbci	r31, 0xF8	; 248
 758:	80 81       	ld	r24, Z
 75a:	91 81       	ldd	r25, Z+1	; 0x01
 75c:	01 97       	sbiw	r24, 0x01	; 1
 75e:	09 f4       	brne	.+2      	; 0x762 <__LOCK_REGION_LENGTH__+0x362>
 760:	00 c1       	rjmp	.+512    	; 0x962 <__LOCK_REGION_LENGTH__+0x562>
 762:	28 98       	cbi	0x05, 0	; 5
 764:	e0 91 d2 05 	lds	r30, 0x05D2	; 0x8005d2 <burstCounter>
 768:	f0 91 d3 05 	lds	r31, 0x05D3	; 0x8005d3 <burstCounter+0x1>
 76c:	ee 0f       	add	r30, r30
 76e:	ff 1f       	adc	r31, r31
 770:	e6 55       	subi	r30, 0x56	; 86
 772:	f9 4f       	sbci	r31, 0xF9	; 249
 774:	80 81       	ld	r24, Z
 776:	91 81       	ldd	r25, Z+1	; 0x01
 778:	01 97       	sbiw	r24, 0x01	; 1
 77a:	09 f4       	brne	.+2      	; 0x77e <__LOCK_REGION_LENGTH__+0x37e>
 77c:	f0 c0       	rjmp	.+480    	; 0x95e <__LOCK_REGION_LENGTH__+0x55e>
 77e:	29 98       	cbi	0x05, 1	; 5
 780:	e0 91 d2 05 	lds	r30, 0x05D2	; 0x8005d2 <burstCounter>
 784:	f0 91 d3 05 	lds	r31, 0x05D3	; 0x8005d3 <burstCounter+0x1>
 788:	ee 0f       	add	r30, r30
 78a:	ff 1f       	adc	r31, r31
 78c:	e0 52       	subi	r30, 0x20	; 32
 78e:	fa 4f       	sbci	r31, 0xFA	; 250
 790:	80 81       	ld	r24, Z
 792:	91 81       	ldd	r25, Z+1	; 0x01
 794:	01 97       	sbiw	r24, 0x01	; 1
 796:	09 f4       	brne	.+2      	; 0x79a <__LOCK_REGION_LENGTH__+0x39a>
 798:	e0 c0       	rjmp	.+448    	; 0x95a <__LOCK_REGION_LENGTH__+0x55a>
 79a:	2a 98       	cbi	0x05, 2	; 5
 79c:	e0 91 d0 05 	lds	r30, 0x05D0	; 0x8005d0 <burstCounterA>
 7a0:	f0 91 d1 05 	lds	r31, 0x05D1	; 0x8005d1 <burstCounterA+0x1>
 7a4:	ee 0f       	add	r30, r30
 7a6:	ff 1f       	adc	r31, r31
 7a8:	e0 52       	subi	r30, 0x20	; 32
 7aa:	fa 4f       	sbci	r31, 0xFA	; 250
 7ac:	80 81       	ld	r24, Z
 7ae:	91 81       	ldd	r25, Z+1	; 0x01
 7b0:	01 97       	sbiw	r24, 0x01	; 1
 7b2:	09 f4       	brne	.+2      	; 0x7b6 <__LOCK_REGION_LENGTH__+0x3b6>
 7b4:	d0 c0       	rjmp	.+416    	; 0x956 <__LOCK_REGION_LENGTH__+0x556>
 7b6:	2b 98       	cbi	0x05, 3	; 5
 7b8:	e0 91 ce 05 	lds	r30, 0x05CE	; 0x8005ce <burstCounterB>
 7bc:	f0 91 cf 05 	lds	r31, 0x05CF	; 0x8005cf <burstCounterB+0x1>
 7c0:	ee 0f       	add	r30, r30
 7c2:	ff 1f       	adc	r31, r31
 7c4:	e0 52       	subi	r30, 0x20	; 32
 7c6:	fa 4f       	sbci	r31, 0xFA	; 250
 7c8:	80 81       	ld	r24, Z
 7ca:	91 81       	ldd	r25, Z+1	; 0x01
 7cc:	01 97       	sbiw	r24, 0x01	; 1
 7ce:	09 f4       	brne	.+2      	; 0x7d2 <__LOCK_REGION_LENGTH__+0x3d2>
 7d0:	36 ce       	rjmp	.-916    	; 0x43e <__LOCK_REGION_LENGTH__+0x3e>
 7d2:	2c 98       	cbi	0x05, 4	; 5
 7d4:	3f cd       	rjmp	.-1410   	; 0x254 <main+0x18c>
 7d6:	28 9a       	sbi	0x05, 0	; 5
 7d8:	29 9a       	sbi	0x05, 1	; 5
 7da:	2a 9a       	sbi	0x05, 2	; 5
 7dc:	2b 9a       	sbi	0x05, 3	; 5
 7de:	2c 9a       	sbi	0x05, 4	; 5
 7e0:	ca cc       	rjmp	.-1644   	; 0x176 <main+0xae>
 7e2:	28 98       	cbi	0x05, 0	; 5
 7e4:	29 98       	cbi	0x05, 1	; 5
 7e6:	2a 98       	cbi	0x05, 2	; 5
 7e8:	2b 98       	cbi	0x05, 3	; 5
 7ea:	2c 98       	cbi	0x05, 4	; 5
 7ec:	c4 cc       	rjmp	.-1656   	; 0x176 <main+0xae>
 7ee:	80 91 70 08 	lds	r24, 0x0870	; 0x800870 <uartBuffer>
 7f2:	83 32       	cpi	r24, 0x23	; 35
 7f4:	09 f0       	breq	.+2      	; 0x7f8 <__LOCK_REGION_LENGTH__+0x3f8>
 7f6:	d7 cc       	rjmp	.-1618   	; 0x1a6 <main+0xde>
 7f8:	80 91 c8 05 	lds	r24, 0x05C8	; 0x8005c8 <bufferIdx>
 7fc:	90 91 c9 05 	lds	r25, 0x05C9	; 0x8005c9 <bufferIdx+0x1>
 800:	01 96       	adiw	r24, 0x01	; 1
 802:	90 93 c9 05 	sts	0x05C9, r25	; 0x8005c9 <bufferIdx+0x1>
 806:	80 93 c8 05 	sts	0x05C8, r24	; 0x8005c8 <bufferIdx>
 80a:	e0 91 c8 05 	lds	r30, 0x05C8	; 0x8005c8 <bufferIdx>
 80e:	f0 91 c9 05 	lds	r31, 0x05C9	; 0x8005c9 <bufferIdx+0x1>
 812:	e2 5c       	subi	r30, 0xC2	; 194
 814:	f7 4f       	sbci	r31, 0xF7	; 247
 816:	10 82       	st	Z, r1
 818:	60 ec       	ldi	r22, 0xC0	; 192
 81a:	75 e0       	ldi	r23, 0x05	; 5
 81c:	8e e3       	ldi	r24, 0x3E	; 62
 81e:	98 e0       	ldi	r25, 0x08	; 8
 820:	0e 94 7e 06 	call	0xcfc	; 0xcfc <strtok>
 824:	0e 94 60 06 	call	0xcc0	; 0xcc0 <atoi>
 828:	90 93 03 01 	sts	0x0103, r25	; 0x800103 <mode+0x1>
 82c:	80 93 02 01 	sts	0x0102, r24	; 0x800102 <mode>
 830:	60 ec       	ldi	r22, 0xC0	; 192
 832:	75 e0       	ldi	r23, 0x05	; 5
 834:	80 e0       	ldi	r24, 0x00	; 0
 836:	90 e0       	ldi	r25, 0x00	; 0
 838:	0e 94 7e 06 	call	0xcfc	; 0xcfc <strtok>
 83c:	0e 94 60 06 	call	0xcc0	; 0xcc0 <atoi>
 840:	90 93 df 05 	sts	0x05DF, r25	; 0x8005df <ctrlVal1+0x1>
 844:	80 93 de 05 	sts	0x05DE, r24	; 0x8005de <ctrlVal1>
 848:	60 ec       	ldi	r22, 0xC0	; 192
 84a:	75 e0       	ldi	r23, 0x05	; 5
 84c:	80 e0       	ldi	r24, 0x00	; 0
 84e:	90 e0       	ldi	r25, 0x00	; 0
 850:	0e 94 7e 06 	call	0xcfc	; 0xcfc <strtok>
 854:	0e 94 60 06 	call	0xcc0	; 0xcc0 <atoi>
 858:	90 93 dd 05 	sts	0x05DD, r25	; 0x8005dd <ctrlVal2+0x1>
 85c:	80 93 dc 05 	sts	0x05DC, r24	; 0x8005dc <ctrlVal2>
 860:	60 ec       	ldi	r22, 0xC0	; 192
 862:	75 e0       	ldi	r23, 0x05	; 5
 864:	80 e0       	ldi	r24, 0x00	; 0
 866:	90 e0       	ldi	r25, 0x00	; 0
 868:	0e 94 7e 06 	call	0xcfc	; 0xcfc <strtok>
 86c:	0e 94 60 06 	call	0xcc0	; 0xcc0 <atoi>
 870:	90 93 db 05 	sts	0x05DB, r25	; 0x8005db <ctrlVal3+0x1>
 874:	80 93 da 05 	sts	0x05DA, r24	; 0x8005da <ctrlVal3>
 878:	10 92 c9 05 	sts	0x05C9, r1	; 0x8005c9 <bufferIdx+0x1>
 87c:	10 92 c8 05 	sts	0x05C8, r1	; 0x8005c8 <bufferIdx>
 880:	10 92 c7 05 	sts	0x05C7, r1	; 0x8005c7 <uartFlag+0x1>
 884:	10 92 c6 05 	sts	0x05C6, r1	; 0x8005c6 <uartFlag>
 888:	b0 92 01 01 	sts	0x0101, r11	; 0x800101 <__data_start+0x1>
 88c:	a0 92 00 01 	sts	0x0100, r10	; 0x800100 <__data_start>
 890:	8a cc       	rjmp	.-1772   	; 0x1a6 <main+0xde>
 892:	29 98       	cbi	0x05, 1	; 5
 894:	10 ce       	rjmp	.-992    	; 0x4b6 <__LOCK_REGION_LENGTH__+0xb6>
 896:	28 98       	cbi	0x05, 0	; 5
 898:	f1 cd       	rjmp	.-1054   	; 0x47c <__LOCK_REGION_LENGTH__+0x7c>
 89a:	2b 98       	cbi	0x05, 3	; 5
 89c:	b2 cd       	rjmp	.-1180   	; 0x402 <__LOCK_REGION_LENGTH__+0x2>
 89e:	2b 98       	cbi	0x05, 3	; 5
 8a0:	2c cf       	rjmp	.-424    	; 0x6fa <__LOCK_REGION_LENGTH__+0x2fa>
 8a2:	80 91 84 00 	lds	r24, 0x0084	; 0x800084 <__TEXT_REGION_LENGTH__+0x7e0084>
 8a6:	90 91 85 00 	lds	r25, 0x0085	; 0x800085 <__TEXT_REGION_LENGTH__+0x7e0085>
 8aa:	85 51       	subi	r24, 0x15	; 21
 8ac:	94 43       	sbci	r25, 0x34	; 52
 8ae:	90 93 cd 05 	sts	0x05CD, r25	; 0x8005cd <timerCounterA+0x1>
 8b2:	80 93 cc 05 	sts	0x05CC, r24	; 0x8005cc <timerCounterA>
 8b6:	ee ce       	rjmp	.-548    	; 0x694 <__LOCK_REGION_LENGTH__+0x294>
 8b8:	2a 98       	cbi	0x05, 2	; 5
 8ba:	d8 ce       	rjmp	.-592    	; 0x66c <__LOCK_REGION_LENGTH__+0x26c>
 8bc:	29 98       	cbi	0x05, 1	; 5
 8be:	b9 ce       	rjmp	.-654    	; 0x632 <__LOCK_REGION_LENGTH__+0x232>
 8c0:	28 98       	cbi	0x05, 0	; 5
 8c2:	9a ce       	rjmp	.-716    	; 0x5f8 <__LOCK_REGION_LENGTH__+0x1f8>
 8c4:	80 91 84 00 	lds	r24, 0x0084	; 0x800084 <__TEXT_REGION_LENGTH__+0x7e0084>
 8c8:	90 91 85 00 	lds	r25, 0x0085	; 0x800085 <__TEXT_REGION_LENGTH__+0x7e0085>
 8cc:	85 51       	subi	r24, 0x15	; 21
 8ce:	94 43       	sbci	r25, 0x34	; 52
 8d0:	90 93 cd 05 	sts	0x05CD, r25	; 0x8005cd <timerCounterA+0x1>
 8d4:	80 93 cc 05 	sts	0x05CC, r24	; 0x8005cc <timerCounterA>
 8d8:	61 cd       	rjmp	.-1342   	; 0x39c <main+0x2d4>
 8da:	2a 98       	cbi	0x05, 2	; 5
 8dc:	4b cd       	rjmp	.-1386   	; 0x374 <main+0x2ac>
 8de:	29 98       	cbi	0x05, 1	; 5
 8e0:	2c cd       	rjmp	.-1448   	; 0x33a <main+0x272>
 8e2:	28 98       	cbi	0x05, 0	; 5
 8e4:	0d cd       	rjmp	.-1510   	; 0x300 <main+0x238>
 8e6:	2b 9a       	sbi	0x05, 3	; 5
 8e8:	a6 cc       	rjmp	.-1716   	; 0x236 <main+0x16e>
 8ea:	2a 9a       	sbi	0x05, 2	; 5
 8ec:	95 cc       	rjmp	.-1750   	; 0x218 <main+0x150>
 8ee:	29 9a       	sbi	0x05, 1	; 5
 8f0:	84 cc       	rjmp	.-1784   	; 0x1fa <main+0x132>
 8f2:	28 9a       	sbi	0x05, 0	; 5
 8f4:	73 cc       	rjmp	.-1818   	; 0x1dc <main+0x114>
 8f6:	2b 98       	cbi	0x05, 3	; 5
 8f8:	42 ce       	rjmp	.-892    	; 0x57e <__LOCK_REGION_LENGTH__+0x17e>
 8fa:	80 91 84 00 	lds	r24, 0x0084	; 0x800084 <__TEXT_REGION_LENGTH__+0x7e0084>
 8fe:	90 91 85 00 	lds	r25, 0x0085	; 0x800085 <__TEXT_REGION_LENGTH__+0x7e0085>
 902:	85 51       	subi	r24, 0x15	; 21
 904:	94 43       	sbci	r25, 0x34	; 52
 906:	90 93 cd 05 	sts	0x05CD, r25	; 0x8005cd <timerCounterA+0x1>
 90a:	80 93 cc 05 	sts	0x05CC, r24	; 0x8005cc <timerCounterA>
 90e:	04 ce       	rjmp	.-1016   	; 0x518 <__LOCK_REGION_LENGTH__+0x118>
 910:	2a 98       	cbi	0x05, 2	; 5
 912:	ee cd       	rjmp	.-1060   	; 0x4f0 <__LOCK_REGION_LENGTH__+0xf0>
 914:	80 91 84 00 	lds	r24, 0x0084	; 0x800084 <__TEXT_REGION_LENGTH__+0x7e0084>
 918:	90 91 85 00 	lds	r25, 0x0085	; 0x800085 <__TEXT_REGION_LENGTH__+0x7e0085>
 91c:	8b 5e       	subi	r24, 0xEB	; 235
 91e:	9b 4c       	sbci	r25, 0xCB	; 203
 920:	90 93 cb 05 	sts	0x05CB, r25	; 0x8005cb <timerCounterB+0x1>
 924:	80 93 ca 05 	sts	0x05CA, r24	; 0x8005ca <timerCounterB>
 928:	4d cd       	rjmp	.-1382   	; 0x3c4 <main+0x2fc>
 92a:	80 91 84 00 	lds	r24, 0x0084	; 0x800084 <__TEXT_REGION_LENGTH__+0x7e0084>
 92e:	90 91 85 00 	lds	r25, 0x0085	; 0x800085 <__TEXT_REGION_LENGTH__+0x7e0085>
 932:	8b 5e       	subi	r24, 0xEB	; 235
 934:	9b 4c       	sbci	r25, 0xCB	; 203
 936:	90 93 cb 05 	sts	0x05CB, r25	; 0x8005cb <timerCounterB+0x1>
 93a:	80 93 ca 05 	sts	0x05CA, r24	; 0x8005ca <timerCounterB>
 93e:	be ce       	rjmp	.-644    	; 0x6bc <__LOCK_REGION_LENGTH__+0x2bc>
 940:	80 91 84 00 	lds	r24, 0x0084	; 0x800084 <__TEXT_REGION_LENGTH__+0x7e0084>
 944:	90 91 85 00 	lds	r25, 0x0085	; 0x800085 <__TEXT_REGION_LENGTH__+0x7e0085>
 948:	8b 5e       	subi	r24, 0xEB	; 235
 94a:	9b 4c       	sbci	r25, 0xCB	; 203
 94c:	90 93 cb 05 	sts	0x05CB, r25	; 0x8005cb <timerCounterB+0x1>
 950:	80 93 ca 05 	sts	0x05CA, r24	; 0x8005ca <timerCounterB>
 954:	f5 cd       	rjmp	.-1046   	; 0x540 <__LOCK_REGION_LENGTH__+0x140>
 956:	2b 9a       	sbi	0x05, 3	; 5
 958:	2f cf       	rjmp	.-418    	; 0x7b8 <__LOCK_REGION_LENGTH__+0x3b8>
 95a:	2a 9a       	sbi	0x05, 2	; 5
 95c:	1f cf       	rjmp	.-450    	; 0x79c <__LOCK_REGION_LENGTH__+0x39c>
 95e:	29 9a       	sbi	0x05, 1	; 5
 960:	0f cf       	rjmp	.-482    	; 0x780 <__LOCK_REGION_LENGTH__+0x380>
 962:	28 9a       	sbi	0x05, 0	; 5
 964:	ff ce       	rjmp	.-514    	; 0x764 <__LOCK_REGION_LENGTH__+0x364>
 966:	a0 91 de 05 	lds	r26, 0x05DE	; 0x8005de <ctrlVal1>
 96a:	b0 91 df 05 	lds	r27, 0x05DF	; 0x8005df <ctrlVal1+0x1>
 96e:	b4 01       	movw	r22, r8
 970:	6a 1b       	sub	r22, r26
 972:	7b 0b       	sbc	r23, r27
 974:	cd 01       	movw	r24, r26
 976:	84 56       	subi	r24, 0x64	; 100
 978:	91 09       	sbc	r25, r1
 97a:	e4 e7       	ldi	r30, 0x74	; 116
 97c:	f7 e0       	ldi	r31, 0x07	; 7
 97e:	20 e0       	ldi	r18, 0x00	; 0
 980:	30 e0       	ldi	r19, 0x00	; 0
 982:	0d c0       	rjmp	.+26     	; 0x99e <__LOCK_REGION_LENGTH__+0x59e>
 984:	d1 83       	std	Z+1, r29	; 0x01
 986:	c0 83       	st	Z, r28
 988:	97 fd       	sbrc	r25, 7
 98a:	0f c0       	rjmp	.+30     	; 0x9aa <__LOCK_REGION_LENGTH__+0x5aa>
 98c:	ac 01       	movw	r20, r24
 98e:	46 1b       	sub	r20, r22
 990:	57 0b       	sbc	r21, r23
 992:	32 96       	adiw	r30, 0x02	; 2
 994:	9c 01       	movw	r18, r24
 996:	ce 16       	cp	r12, r30
 998:	df 06       	cpc	r13, r31
 99a:	79 f0       	breq	.+30     	; 0x9ba <__LOCK_REGION_LENGTH__+0x5ba>
 99c:	ca 01       	movw	r24, r20
 99e:	37 ff       	sbrs	r19, 7
 9a0:	f1 cf       	rjmp	.-30     	; 0x984 <__LOCK_REGION_LENGTH__+0x584>
 9a2:	11 82       	std	Z+1, r1	; 0x01
 9a4:	10 82       	st	Z, r1
 9a6:	97 ff       	sbrs	r25, 7
 9a8:	f1 cf       	rjmp	.-30     	; 0x98c <__LOCK_REGION_LENGTH__+0x58c>
 9aa:	ad 01       	movw	r20, r26
 9ac:	48 0f       	add	r20, r24
 9ae:	59 1f       	adc	r21, r25
 9b0:	32 96       	adiw	r30, 0x02	; 2
 9b2:	9c 01       	movw	r18, r24
 9b4:	ce 16       	cp	r12, r30
 9b6:	df 06       	cpc	r13, r31
 9b8:	89 f7       	brne	.-30     	; 0x99c <__LOCK_REGION_LENGTH__+0x59c>
 9ba:	a0 91 dc 05 	lds	r26, 0x05DC	; 0x8005dc <ctrlVal2>
 9be:	b0 91 dd 05 	lds	r27, 0x05DD	; 0x8005dd <ctrlVal2+0x1>
 9c2:	b4 01       	movw	r22, r8
 9c4:	6a 1b       	sub	r22, r26
 9c6:	7b 0b       	sbc	r23, r27
 9c8:	cd 01       	movw	r24, r26
 9ca:	84 56       	subi	r24, 0x64	; 100
 9cc:	91 09       	sbc	r25, r1
 9ce:	ea ea       	ldi	r30, 0xAA	; 170
 9d0:	f6 e0       	ldi	r31, 0x06	; 6
 9d2:	20 e0       	ldi	r18, 0x00	; 0
 9d4:	30 e0       	ldi	r19, 0x00	; 0
 9d6:	0d c0       	rjmp	.+26     	; 0x9f2 <__LOCK_REGION_LENGTH__+0x5f2>
 9d8:	d1 83       	std	Z+1, r29	; 0x01
 9da:	c0 83       	st	Z, r28
 9dc:	97 fd       	sbrc	r25, 7
 9de:	0f c0       	rjmp	.+30     	; 0x9fe <__LOCK_REGION_LENGTH__+0x5fe>
 9e0:	ac 01       	movw	r20, r24
 9e2:	46 1b       	sub	r20, r22
 9e4:	57 0b       	sbc	r21, r23
 9e6:	32 96       	adiw	r30, 0x02	; 2
 9e8:	9c 01       	movw	r18, r24
 9ea:	ee 16       	cp	r14, r30
 9ec:	ff 06       	cpc	r15, r31
 9ee:	79 f0       	breq	.+30     	; 0xa0e <__LOCK_REGION_LENGTH__+0x60e>
 9f0:	ca 01       	movw	r24, r20
 9f2:	37 ff       	sbrs	r19, 7
 9f4:	f1 cf       	rjmp	.-30     	; 0x9d8 <__LOCK_REGION_LENGTH__+0x5d8>
 9f6:	11 82       	std	Z+1, r1	; 0x01
 9f8:	10 82       	st	Z, r1
 9fa:	97 ff       	sbrs	r25, 7
 9fc:	f1 cf       	rjmp	.-30     	; 0x9e0 <__LOCK_REGION_LENGTH__+0x5e0>
 9fe:	ad 01       	movw	r20, r26
 a00:	48 0f       	add	r20, r24
 a02:	59 1f       	adc	r21, r25
 a04:	32 96       	adiw	r30, 0x02	; 2
 a06:	9c 01       	movw	r18, r24
 a08:	ee 16       	cp	r14, r30
 a0a:	ff 06       	cpc	r15, r31
 a0c:	89 f7       	brne	.-30     	; 0x9f0 <__LOCK_REGION_LENGTH__+0x5f0>
 a0e:	a0 91 da 05 	lds	r26, 0x05DA	; 0x8005da <ctrlVal3>
 a12:	b0 91 db 05 	lds	r27, 0x05DB	; 0x8005db <ctrlVal3+0x1>
 a16:	b4 01       	movw	r22, r8
 a18:	6a 1b       	sub	r22, r26
 a1a:	7b 0b       	sbc	r23, r27
 a1c:	cd 01       	movw	r24, r26
 a1e:	84 56       	subi	r24, 0x64	; 100
 a20:	91 09       	sbc	r25, r1
 a22:	e0 ee       	ldi	r30, 0xE0	; 224
 a24:	f5 e0       	ldi	r31, 0x05	; 5
 a26:	20 e0       	ldi	r18, 0x00	; 0
 a28:	30 e0       	ldi	r19, 0x00	; 0
 a2a:	0d c0       	rjmp	.+26     	; 0xa46 <__LOCK_REGION_LENGTH__+0x646>
 a2c:	d1 83       	std	Z+1, r29	; 0x01
 a2e:	c0 83       	st	Z, r28
 a30:	97 fd       	sbrc	r25, 7
 a32:	0f c0       	rjmp	.+30     	; 0xa52 <__LOCK_REGION_LENGTH__+0x652>
 a34:	ac 01       	movw	r20, r24
 a36:	46 1b       	sub	r20, r22
 a38:	57 0b       	sbc	r21, r23
 a3a:	32 96       	adiw	r30, 0x02	; 2
 a3c:	9c 01       	movw	r18, r24
 a3e:	0e 17       	cp	r16, r30
 a40:	1f 07       	cpc	r17, r31
 a42:	79 f0       	breq	.+30     	; 0xa62 <__LOCK_REGION_LENGTH__+0x662>
 a44:	ca 01       	movw	r24, r20
 a46:	37 ff       	sbrs	r19, 7
 a48:	f1 cf       	rjmp	.-30     	; 0xa2c <__LOCK_REGION_LENGTH__+0x62c>
 a4a:	11 82       	std	Z+1, r1	; 0x01
 a4c:	10 82       	st	Z, r1
 a4e:	97 ff       	sbrs	r25, 7
 a50:	f1 cf       	rjmp	.-30     	; 0xa34 <__LOCK_REGION_LENGTH__+0x634>
 a52:	ad 01       	movw	r20, r26
 a54:	48 0f       	add	r20, r24
 a56:	59 1f       	adc	r21, r25
 a58:	32 96       	adiw	r30, 0x02	; 2
 a5a:	9c 01       	movw	r18, r24
 a5c:	0e 17       	cp	r16, r30
 a5e:	1f 07       	cpc	r17, r31
 a60:	89 f7       	brne	.-30     	; 0xa44 <__LOCK_REGION_LENGTH__+0x644>
 a62:	10 92 01 01 	sts	0x0101, r1	; 0x800101 <__data_start+0x1>
 a66:	10 92 00 01 	sts	0x0100, r1	; 0x800100 <__data_start>
 a6a:	6e ce       	rjmp	.-804    	; 0x748 <__LOCK_REGION_LENGTH__+0x348>

00000a6c <__vector_1>:
    } else {
        timerCounterB = TCNT1-6667;
    }
}
ISR (INT0_vect) {
 a6c:	1f 92       	push	r1
 a6e:	0f 92       	push	r0
 a70:	0f b6       	in	r0, 0x3f	; 63
 a72:	0f 92       	push	r0
 a74:	11 24       	eor	r1, r1
 a76:	8f 93       	push	r24
 a78:	ef 93       	push	r30
 a7a:	ff 93       	push	r31
    TCNT1 = 0;
 a7c:	10 92 85 00 	sts	0x0085, r1	; 0x800085 <__TEXT_REGION_LENGTH__+0x7e0085>
 a80:	10 92 84 00 	sts	0x0084, r1	; 0x800084 <__TEXT_REGION_LENGTH__+0x7e0084>
    TCNT2 = 0;
 a84:	10 92 b2 00 	sts	0x00B2, r1	; 0x8000b2 <__TEXT_REGION_LENGTH__+0x7e00b2>
    TCCR2B |= (1<<CS22);
 a88:	e1 eb       	ldi	r30, 0xB1	; 177
 a8a:	f0 e0       	ldi	r31, 0x00	; 0
 a8c:	80 81       	ld	r24, Z
 a8e:	84 60       	ori	r24, 0x04	; 4
 a90:	80 83       	st	Z, r24
}
 a92:	ff 91       	pop	r31
 a94:	ef 91       	pop	r30
 a96:	8f 91       	pop	r24
 a98:	0f 90       	pop	r0
 a9a:	0f be       	out	0x3f, r0	; 63
 a9c:	0f 90       	pop	r0
 a9e:	1f 90       	pop	r1
 aa0:	18 95       	reti

00000aa2 <__vector_20>:
ISR(USART0_RX_vect) {
 aa2:	1f 92       	push	r1
 aa4:	0f 92       	push	r0
 aa6:	0f b6       	in	r0, 0x3f	; 63
 aa8:	0f 92       	push	r0
 aaa:	11 24       	eor	r1, r1
 aac:	8f 93       	push	r24
 aae:	9f 93       	push	r25
    }
    //PORTC ^= (1<<PC4);
    TCCR2B = 0x00;
}
unsigned char uart_getc() {
    while (!(UCSR0A & (1<<RXC0))) {
 ab0:	80 91 c0 00 	lds	r24, 0x00C0	; 0x8000c0 <__TEXT_REGION_LENGTH__+0x7e00c0>
 ab4:	87 ff       	sbrs	r24, 7
 ab6:	fc cf       	rjmp	.-8      	; 0xab0 <__vector_20+0xe>
    }
    return UDR0;
 ab8:	80 91 c6 00 	lds	r24, 0x00C6	; 0x8000c6 <__TEXT_REGION_LENGTH__+0x7e00c6>
    TCNT1 = 0;
    TCNT2 = 0;
    TCCR2B |= (1<<CS22);
}
ISR(USART0_RX_vect) {
    uartBuffer = uart_getc();
 abc:	80 93 70 08 	sts	0x0870, r24	; 0x800870 <uartBuffer>
    uartFlag = 1;
 ac0:	81 e0       	ldi	r24, 0x01	; 1
 ac2:	90 e0       	ldi	r25, 0x00	; 0
 ac4:	90 93 c7 05 	sts	0x05C7, r25	; 0x8005c7 <uartFlag+0x1>
 ac8:	80 93 c6 05 	sts	0x05C6, r24	; 0x8005c6 <uartFlag>
}
 acc:	9f 91       	pop	r25
 ace:	8f 91       	pop	r24
 ad0:	0f 90       	pop	r0
 ad2:	0f be       	out	0x3f, r0	; 63
 ad4:	0f 90       	pop	r0
 ad6:	1f 90       	pop	r1
 ad8:	18 95       	reti

00000ada <__vector_16>:
ISR (TIMER0_COMPA_vect) {
 ada:	1f 92       	push	r1
 adc:	0f 92       	push	r0
 ade:	0f b6       	in	r0, 0x3f	; 63
 ae0:	0f 92       	push	r0
 ae2:	11 24       	eor	r1, r1
 ae4:	8f 93       	push	r24
 ae6:	9f 93       	push	r25
    if(shiftFlag == 0) {
 ae8:	80 91 c4 05 	lds	r24, 0x05C4	; 0x8005c4 <shiftFlag>
 aec:	90 91 c5 05 	lds	r25, 0x05C5	; 0x8005c5 <shiftFlag+0x1>
 af0:	89 2b       	or	r24, r25
 af2:	c9 f0       	breq	.+50     	; 0xb26 <__vector_16+0x4c>
        intCounterPhaseA = intCounter;
        burstCounterA = burstCounter;
    } else {
        intCounterPhaseB = intCounter;
 af4:	80 91 d8 05 	lds	r24, 0x05D8	; 0x8005d8 <intCounter>
 af8:	90 91 d9 05 	lds	r25, 0x05D9	; 0x8005d9 <intCounter+0x1>
 afc:	90 93 d5 05 	sts	0x05D5, r25	; 0x8005d5 <intCounterPhaseB+0x1>
 b00:	80 93 d4 05 	sts	0x05D4, r24	; 0x8005d4 <intCounterPhaseB>
        burstCounterB = burstCounter;
 b04:	80 91 d2 05 	lds	r24, 0x05D2	; 0x8005d2 <burstCounter>
 b08:	90 91 d3 05 	lds	r25, 0x05D3	; 0x8005d3 <burstCounter+0x1>
 b0c:	90 93 cf 05 	sts	0x05CF, r25	; 0x8005cf <burstCounterB+0x1>
 b10:	80 93 ce 05 	sts	0x05CE, r24	; 0x8005ce <burstCounterB>
        OCR0A = 255;
 b14:	8f ef       	ldi	r24, 0xFF	; 255
 b16:	87 bd       	out	0x27, r24	; 39
    }
}
 b18:	9f 91       	pop	r25
 b1a:	8f 91       	pop	r24
 b1c:	0f 90       	pop	r0
 b1e:	0f be       	out	0x3f, r0	; 63
 b20:	0f 90       	pop	r0
 b22:	1f 90       	pop	r1
 b24:	18 95       	reti
    uartBuffer = uart_getc();
    uartFlag = 1;
}
ISR (TIMER0_COMPA_vect) {
    if(shiftFlag == 0) {
        intCounterPhaseA = intCounter;
 b26:	80 91 d8 05 	lds	r24, 0x05D8	; 0x8005d8 <intCounter>
 b2a:	90 91 d9 05 	lds	r25, 0x05D9	; 0x8005d9 <intCounter+0x1>
 b2e:	90 93 d7 05 	sts	0x05D7, r25	; 0x8005d7 <intCounterPhaseA+0x1>
 b32:	80 93 d6 05 	sts	0x05D6, r24	; 0x8005d6 <intCounterPhaseA>
        burstCounterA = burstCounter;
 b36:	80 91 d2 05 	lds	r24, 0x05D2	; 0x8005d2 <burstCounter>
 b3a:	90 91 d3 05 	lds	r25, 0x05D3	; 0x8005d3 <burstCounter+0x1>
 b3e:	90 93 d1 05 	sts	0x05D1, r25	; 0x8005d1 <burstCounterA+0x1>
 b42:	80 93 d0 05 	sts	0x05D0, r24	; 0x8005d0 <burstCounterA>
    } else {
        intCounterPhaseB = intCounter;
        burstCounterB = burstCounter;
        OCR0A = 255;
    }
}
 b46:	9f 91       	pop	r25
 b48:	8f 91       	pop	r24
 b4a:	0f 90       	pop	r0
 b4c:	0f be       	out	0x3f, r0	; 63
 b4e:	0f 90       	pop	r0
 b50:	1f 90       	pop	r1
 b52:	18 95       	reti

00000b54 <__vector_9>:
ISR (TIMER2_COMPA_vect) {
 b54:	1f 92       	push	r1
 b56:	0f 92       	push	r0
 b58:	0f b6       	in	r0, 0x3f	; 63
 b5a:	0f 92       	push	r0
 b5c:	11 24       	eor	r1, r1
 b5e:	2f 93       	push	r18
 b60:	3f 93       	push	r19
 b62:	8f 93       	push	r24
 b64:	9f 93       	push	r25
    TCNT0 = 0;
 b66:	16 bc       	out	0x26, r1	; 38
    shiftFlag = 1 - shiftFlag;
 b68:	20 91 c4 05 	lds	r18, 0x05C4	; 0x8005c4 <shiftFlag>
 b6c:	30 91 c5 05 	lds	r19, 0x05C5	; 0x8005c5 <shiftFlag+0x1>
 b70:	81 e0       	ldi	r24, 0x01	; 1
 b72:	90 e0       	ldi	r25, 0x00	; 0
 b74:	82 1b       	sub	r24, r18
 b76:	93 0b       	sbc	r25, r19
 b78:	90 93 c5 05 	sts	0x05C5, r25	; 0x8005c5 <shiftFlag+0x1>
 b7c:	80 93 c4 05 	sts	0x05C4, r24	; 0x8005c4 <shiftFlag>
    if(shiftFlag == 1) {
 b80:	80 91 c4 05 	lds	r24, 0x05C4	; 0x8005c4 <shiftFlag>
 b84:	90 91 c5 05 	lds	r25, 0x05C5	; 0x8005c5 <shiftFlag+0x1>
 b88:	01 97       	sbiw	r24, 0x01	; 1
 b8a:	59 f1       	breq	.+86     	; 0xbe2 <__vector_9+0x8e>
        OCR0A = 52;
    } else {
        OCR0A = 104;
 b8c:	88 e6       	ldi	r24, 0x68	; 104
 b8e:	87 bd       	out	0x27, r24	; 39
    }
    intCounter++;
 b90:	80 91 d8 05 	lds	r24, 0x05D8	; 0x8005d8 <intCounter>
 b94:	90 91 d9 05 	lds	r25, 0x05D9	; 0x8005d9 <intCounter+0x1>
 b98:	01 96       	adiw	r24, 0x01	; 1
 b9a:	90 93 d9 05 	sts	0x05D9, r25	; 0x8005d9 <intCounter+0x1>
 b9e:	80 93 d8 05 	sts	0x05D8, r24	; 0x8005d8 <intCounter>
    if((intCounter%2==0)&&(intCounter!=0)) {
 ba2:	80 91 d8 05 	lds	r24, 0x05D8	; 0x8005d8 <intCounter>
 ba6:	90 91 d9 05 	lds	r25, 0x05D9	; 0x8005d9 <intCounter+0x1>
 baa:	80 fd       	sbrc	r24, 0
 bac:	0f c0       	rjmp	.+30     	; 0xbcc <__vector_9+0x78>
 bae:	80 91 d8 05 	lds	r24, 0x05D8	; 0x8005d8 <intCounter>
 bb2:	90 91 d9 05 	lds	r25, 0x05D9	; 0x8005d9 <intCounter+0x1>
 bb6:	89 2b       	or	r24, r25
 bb8:	49 f0       	breq	.+18     	; 0xbcc <__vector_9+0x78>
        burstCounter++;
 bba:	80 91 d2 05 	lds	r24, 0x05D2	; 0x8005d2 <burstCounter>
 bbe:	90 91 d3 05 	lds	r25, 0x05D3	; 0x8005d3 <burstCounter+0x1>
 bc2:	01 96       	adiw	r24, 0x01	; 1
 bc4:	90 93 d3 05 	sts	0x05D3, r25	; 0x8005d3 <burstCounter+0x1>
 bc8:	80 93 d2 05 	sts	0x05D2, r24	; 0x8005d2 <burstCounter>
    }
    //PORTC ^= (1<<PC4);
    TCCR2B = 0x00;
 bcc:	10 92 b1 00 	sts	0x00B1, r1	; 0x8000b1 <__TEXT_REGION_LENGTH__+0x7e00b1>
}
 bd0:	9f 91       	pop	r25
 bd2:	8f 91       	pop	r24
 bd4:	3f 91       	pop	r19
 bd6:	2f 91       	pop	r18
 bd8:	0f 90       	pop	r0
 bda:	0f be       	out	0x3f, r0	; 63
 bdc:	0f 90       	pop	r0
 bde:	1f 90       	pop	r1
 be0:	18 95       	reti
}
ISR (TIMER2_COMPA_vect) {
    TCNT0 = 0;
    shiftFlag = 1 - shiftFlag;
    if(shiftFlag == 1) {
        OCR0A = 52;
 be2:	84 e3       	ldi	r24, 0x34	; 52
 be4:	87 bd       	out	0x27, r24	; 39
 be6:	d4 cf       	rjmp	.-88     	; 0xb90 <__vector_9+0x3c>

00000be8 <__floatunsisf>:
 be8:	e8 94       	clt
 bea:	09 c0       	rjmp	.+18     	; 0xbfe <__floatsisf+0x12>

00000bec <__floatsisf>:
 bec:	97 fb       	bst	r25, 7
 bee:	3e f4       	brtc	.+14     	; 0xbfe <__floatsisf+0x12>
 bf0:	90 95       	com	r25
 bf2:	80 95       	com	r24
 bf4:	70 95       	com	r23
 bf6:	61 95       	neg	r22
 bf8:	7f 4f       	sbci	r23, 0xFF	; 255
 bfa:	8f 4f       	sbci	r24, 0xFF	; 255
 bfc:	9f 4f       	sbci	r25, 0xFF	; 255
 bfe:	99 23       	and	r25, r25
 c00:	a9 f0       	breq	.+42     	; 0xc2c <__floatsisf+0x40>
 c02:	f9 2f       	mov	r31, r25
 c04:	96 e9       	ldi	r25, 0x96	; 150
 c06:	bb 27       	eor	r27, r27
 c08:	93 95       	inc	r25
 c0a:	f6 95       	lsr	r31
 c0c:	87 95       	ror	r24
 c0e:	77 95       	ror	r23
 c10:	67 95       	ror	r22
 c12:	b7 95       	ror	r27
 c14:	f1 11       	cpse	r31, r1
 c16:	f8 cf       	rjmp	.-16     	; 0xc08 <__floatsisf+0x1c>
 c18:	fa f4       	brpl	.+62     	; 0xc58 <__floatsisf+0x6c>
 c1a:	bb 0f       	add	r27, r27
 c1c:	11 f4       	brne	.+4      	; 0xc22 <__floatsisf+0x36>
 c1e:	60 ff       	sbrs	r22, 0
 c20:	1b c0       	rjmp	.+54     	; 0xc58 <__floatsisf+0x6c>
 c22:	6f 5f       	subi	r22, 0xFF	; 255
 c24:	7f 4f       	sbci	r23, 0xFF	; 255
 c26:	8f 4f       	sbci	r24, 0xFF	; 255
 c28:	9f 4f       	sbci	r25, 0xFF	; 255
 c2a:	16 c0       	rjmp	.+44     	; 0xc58 <__floatsisf+0x6c>
 c2c:	88 23       	and	r24, r24
 c2e:	11 f0       	breq	.+4      	; 0xc34 <__floatsisf+0x48>
 c30:	96 e9       	ldi	r25, 0x96	; 150
 c32:	11 c0       	rjmp	.+34     	; 0xc56 <__floatsisf+0x6a>
 c34:	77 23       	and	r23, r23
 c36:	21 f0       	breq	.+8      	; 0xc40 <__floatsisf+0x54>
 c38:	9e e8       	ldi	r25, 0x8E	; 142
 c3a:	87 2f       	mov	r24, r23
 c3c:	76 2f       	mov	r23, r22
 c3e:	05 c0       	rjmp	.+10     	; 0xc4a <__floatsisf+0x5e>
 c40:	66 23       	and	r22, r22
 c42:	71 f0       	breq	.+28     	; 0xc60 <__floatsisf+0x74>
 c44:	96 e8       	ldi	r25, 0x86	; 134
 c46:	86 2f       	mov	r24, r22
 c48:	70 e0       	ldi	r23, 0x00	; 0
 c4a:	60 e0       	ldi	r22, 0x00	; 0
 c4c:	2a f0       	brmi	.+10     	; 0xc58 <__floatsisf+0x6c>
 c4e:	9a 95       	dec	r25
 c50:	66 0f       	add	r22, r22
 c52:	77 1f       	adc	r23, r23
 c54:	88 1f       	adc	r24, r24
 c56:	da f7       	brpl	.-10     	; 0xc4e <__floatsisf+0x62>
 c58:	88 0f       	add	r24, r24
 c5a:	96 95       	lsr	r25
 c5c:	87 95       	ror	r24
 c5e:	97 f9       	bld	r25, 7
 c60:	08 95       	ret

00000c62 <__gesf2>:
 c62:	0e 94 36 06 	call	0xc6c	; 0xc6c <__fp_cmp>
 c66:	08 f4       	brcc	.+2      	; 0xc6a <__gesf2+0x8>
 c68:	8f ef       	ldi	r24, 0xFF	; 255
 c6a:	08 95       	ret

00000c6c <__fp_cmp>:
 c6c:	99 0f       	add	r25, r25
 c6e:	00 08       	sbc	r0, r0
 c70:	55 0f       	add	r21, r21
 c72:	aa 0b       	sbc	r26, r26
 c74:	e0 e8       	ldi	r30, 0x80	; 128
 c76:	fe ef       	ldi	r31, 0xFE	; 254
 c78:	16 16       	cp	r1, r22
 c7a:	17 06       	cpc	r1, r23
 c7c:	e8 07       	cpc	r30, r24
 c7e:	f9 07       	cpc	r31, r25
 c80:	c0 f0       	brcs	.+48     	; 0xcb2 <__fp_cmp+0x46>
 c82:	12 16       	cp	r1, r18
 c84:	13 06       	cpc	r1, r19
 c86:	e4 07       	cpc	r30, r20
 c88:	f5 07       	cpc	r31, r21
 c8a:	98 f0       	brcs	.+38     	; 0xcb2 <__fp_cmp+0x46>
 c8c:	62 1b       	sub	r22, r18
 c8e:	73 0b       	sbc	r23, r19
 c90:	84 0b       	sbc	r24, r20
 c92:	95 0b       	sbc	r25, r21
 c94:	39 f4       	brne	.+14     	; 0xca4 <__fp_cmp+0x38>
 c96:	0a 26       	eor	r0, r26
 c98:	61 f0       	breq	.+24     	; 0xcb2 <__fp_cmp+0x46>
 c9a:	23 2b       	or	r18, r19
 c9c:	24 2b       	or	r18, r20
 c9e:	25 2b       	or	r18, r21
 ca0:	21 f4       	brne	.+8      	; 0xcaa <__fp_cmp+0x3e>
 ca2:	08 95       	ret
 ca4:	0a 26       	eor	r0, r26
 ca6:	09 f4       	brne	.+2      	; 0xcaa <__fp_cmp+0x3e>
 ca8:	a1 40       	sbci	r26, 0x01	; 1
 caa:	a6 95       	lsr	r26
 cac:	8f ef       	ldi	r24, 0xFF	; 255
 cae:	81 1d       	adc	r24, r1
 cb0:	81 1d       	adc	r24, r1
 cb2:	08 95       	ret

00000cb4 <__tablejump2__>:
 cb4:	ee 0f       	add	r30, r30
 cb6:	ff 1f       	adc	r31, r31
 cb8:	05 90       	lpm	r0, Z+
 cba:	f4 91       	lpm	r31, Z
 cbc:	e0 2d       	mov	r30, r0
 cbe:	09 94       	ijmp

00000cc0 <atoi>:
 cc0:	fc 01       	movw	r30, r24
 cc2:	88 27       	eor	r24, r24
 cc4:	99 27       	eor	r25, r25
 cc6:	e8 94       	clt
 cc8:	21 91       	ld	r18, Z+
 cca:	20 32       	cpi	r18, 0x20	; 32
 ccc:	e9 f3       	breq	.-6      	; 0xcc8 <atoi+0x8>
 cce:	29 30       	cpi	r18, 0x09	; 9
 cd0:	10 f0       	brcs	.+4      	; 0xcd6 <atoi+0x16>
 cd2:	2e 30       	cpi	r18, 0x0E	; 14
 cd4:	c8 f3       	brcs	.-14     	; 0xcc8 <atoi+0x8>
 cd6:	2b 32       	cpi	r18, 0x2B	; 43
 cd8:	41 f0       	breq	.+16     	; 0xcea <atoi+0x2a>
 cda:	2d 32       	cpi	r18, 0x2D	; 45
 cdc:	39 f4       	brne	.+14     	; 0xcec <atoi+0x2c>
 cde:	68 94       	set
 ce0:	04 c0       	rjmp	.+8      	; 0xcea <atoi+0x2a>
 ce2:	0e 94 aa 06 	call	0xd54	; 0xd54 <__mulhi_const_10>
 ce6:	82 0f       	add	r24, r18
 ce8:	91 1d       	adc	r25, r1
 cea:	21 91       	ld	r18, Z+
 cec:	20 53       	subi	r18, 0x30	; 48
 cee:	2a 30       	cpi	r18, 0x0A	; 10
 cf0:	c0 f3       	brcs	.-16     	; 0xce2 <atoi+0x22>
 cf2:	1e f4       	brtc	.+6      	; 0xcfa <atoi+0x3a>
 cf4:	90 95       	com	r25
 cf6:	81 95       	neg	r24
 cf8:	9f 4f       	sbci	r25, 0xFF	; 255
 cfa:	08 95       	ret

00000cfc <strtok>:
 cfc:	42 ec       	ldi	r20, 0xC2	; 194
 cfe:	55 e0       	ldi	r21, 0x05	; 5
 d00:	0e 94 83 06 	call	0xd06	; 0xd06 <strtok_r>
 d04:	08 95       	ret

00000d06 <strtok_r>:
 d06:	fa 01       	movw	r30, r20
 d08:	a1 91       	ld	r26, Z+
 d0a:	b0 81       	ld	r27, Z
 d0c:	00 97       	sbiw	r24, 0x00	; 0
 d0e:	19 f4       	brne	.+6      	; 0xd16 <strtok_r+0x10>
 d10:	10 97       	sbiw	r26, 0x00	; 0
 d12:	e1 f0       	breq	.+56     	; 0xd4c <strtok_r+0x46>
 d14:	cd 01       	movw	r24, r26
 d16:	dc 01       	movw	r26, r24
 d18:	cd 01       	movw	r24, r26
 d1a:	0d 90       	ld	r0, X+
 d1c:	00 20       	and	r0, r0
 d1e:	11 f4       	brne	.+4      	; 0xd24 <strtok_r+0x1e>
 d20:	c0 01       	movw	r24, r0
 d22:	13 c0       	rjmp	.+38     	; 0xd4a <strtok_r+0x44>
 d24:	fb 01       	movw	r30, r22
 d26:	21 91       	ld	r18, Z+
 d28:	22 23       	and	r18, r18
 d2a:	19 f0       	breq	.+6      	; 0xd32 <strtok_r+0x2c>
 d2c:	20 15       	cp	r18, r0
 d2e:	d9 f7       	brne	.-10     	; 0xd26 <strtok_r+0x20>
 d30:	f3 cf       	rjmp	.-26     	; 0xd18 <strtok_r+0x12>
 d32:	fb 01       	movw	r30, r22
 d34:	21 91       	ld	r18, Z+
 d36:	20 15       	cp	r18, r0
 d38:	19 f4       	brne	.+6      	; 0xd40 <strtok_r+0x3a>
 d3a:	1e 92       	st	-X, r1
 d3c:	11 96       	adiw	r26, 0x01	; 1
 d3e:	06 c0       	rjmp	.+12     	; 0xd4c <strtok_r+0x46>
 d40:	22 23       	and	r18, r18
 d42:	c1 f7       	brne	.-16     	; 0xd34 <strtok_r+0x2e>
 d44:	0d 90       	ld	r0, X+
 d46:	00 20       	and	r0, r0
 d48:	a1 f7       	brne	.-24     	; 0xd32 <strtok_r+0x2c>
 d4a:	d0 01       	movw	r26, r0
 d4c:	fa 01       	movw	r30, r20
 d4e:	a1 93       	st	Z+, r26
 d50:	b0 83       	st	Z, r27
 d52:	08 95       	ret

00000d54 <__mulhi_const_10>:
 d54:	7a e0       	ldi	r23, 0x0A	; 10
 d56:	97 9f       	mul	r25, r23
 d58:	90 2d       	mov	r25, r0
 d5a:	87 9f       	mul	r24, r23
 d5c:	80 2d       	mov	r24, r0
 d5e:	91 0d       	add	r25, r1
 d60:	11 24       	eor	r1, r1
 d62:	08 95       	ret

00000d64 <_exit>:
 d64:	f8 94       	cli

00000d66 <__stop_program>:
 d66:	ff cf       	rjmp	.-2      	; 0xd66 <__stop_program>
